ARM GAS  C:\Users\zakis\AppData\Local\Temp\cco5DHCH.s 			page 1


   1              		.syntax unified
   2              		.cpu cortex-m3
   3              		.fpu softvfp
   4              		.eabi_attribute 20, 1
   5              		.eabi_attribute 21, 1
   6              		.eabi_attribute 23, 3
   7              		.eabi_attribute 24, 1
   8              		.eabi_attribute 25, 1
   9              		.eabi_attribute 26, 1
  10              		.eabi_attribute 30, 1
  11              		.eabi_attribute 34, 1
  12              		.eabi_attribute 18, 4
  13              		.thumb
  14              		.syntax unified
  15              		.file	"cfar.c"
  16              		.text
  17              	.Ltext0:
  18              		.cfi_sections	.debug_frame
  19              		.section	.text.CFAR_init,"ax",%progbits
  20              		.align	2
  21              		.global	CFAR_init
  22              		.thumb
  23              		.thumb_func
  24              		.type	CFAR_init, %function
  25              	CFAR_init:
  26              	.LFB167:
  27              		.file 1 "source\\asw\\cfar.c"
   1:source\asw/cfar.c **** /**
   2:source\asw/cfar.c **** * \brief Implements the Reaction Game logic
   3:source\asw/cfar.c **** *
   4:source\asw/cfar.c **** * \copyright Copyright ©2016
   5:source\asw/cfar.c **** * Department of electrical engineering and information technology, Hochschule Darmstadt - Universit
   6:source\asw/cfar.c **** * Permission to use, copy, modify, and distribute this software and its documentation for education
   7:source\asw/cfar.c **** * (unless permitted by h_da) and official h_da projects, is hereby granted for enrolled students of
   8:source\asw/cfar.c **** * this paragraph and the following paragraph appear in all copies, modifications, and distributions
   9:source\asw/cfar.c **** * Contact Prof.Dr.-Ing. Peter Fromm, peter.fromm@h-da.de, Birkenweg 8 64295 Darmstadt - GERMANY for
  10:source\asw/cfar.c **** *
  11:source\asw/cfar.c **** * \warning This software is a PROTOTYPE version and is not designed or intended for use in producti
  12:source\asw/cfar.c **** * The user represents and warrants that it will NOT use or redistribute the Software for such purpo
  13:source\asw/cfar.c **** * This prototype is for research purposes only. This software is provided "AS IS," without a warran
  14:source\asw/cfar.c **** */
  15:source\asw/cfar.c **** 
  16:source\asw/cfar.c **** /*****************************************************************************/
  17:source\asw/cfar.c **** /* Include files                                                             */
  18:source\asw/cfar.c **** /*****************************************************************************/
  19:source\asw/cfar.c **** 
  20:source\asw/cfar.c **** 
  21:source\asw/cfar.c **** #include "project.h"
  22:source\asw/cfar.c **** #include "detector.h"
  23:source\asw/cfar.c **** #include "uart.h"
  24:source\asw/cfar.c **** #include "dma.h"
  25:source\asw/cfar.c **** #include "dac_adc.h"
  26:source\asw/cfar.c **** #include "led.h"
  27:source\asw/cfar.c **** #include "uart.h"
  28:source\asw/cfar.c **** 
  29:source\asw/cfar.c **** #include "fft_application.h"
  30:source\asw/cfar.c **** #include "cfar.h"
ARM GAS  C:\Users\zakis\AppData\Local\Temp\cco5DHCH.s 			page 2


  31:source\asw/cfar.c **** #include <math.h>
  32:source\asw/cfar.c **** #include <stdio.h>
  33:source\asw/cfar.c **** 
  34:source\asw/cfar.c **** /*****************************************************************************/
  35:source\asw/cfar.c **** /* Local pre-processor symbols/macros ('#define')                            */
  36:source\asw/cfar.c **** /*****************************************************************************/
  37:source\asw/cfar.c **** 
  38:source\asw/cfar.c **** /*****************************************************************************/
  39:source\asw/cfar.c **** /* Global variable definitions (declared in header file with 'extern')       */
  40:source\asw/cfar.c **** /*****************************************************************************/
  41:source\asw/cfar.c **** 
  42:source\asw/cfar.c **** /*****************************************************************************/
  43:source\asw/cfar.c **** /* Local type definitions ('typedef')                                        */
  44:source\asw/cfar.c **** /*****************************************************************************/
  45:source\asw/cfar.c **** 
  46:source\asw/cfar.c **** /*****************************************************************************/
  47:source\asw/cfar.c **** /* Local variable definitions ('static')                                     */
  48:source\asw/cfar.c **** /*****************************************************************************/
  49:source\asw/cfar.c **** 
  50:source\asw/cfar.c **** /**
  51:source\asw/cfar.c ****  * @brief Variable representing the clock frequency for the reaction game module.
  52:source\asw/cfar.c ****  */
  53:source\asw/cfar.c **** 
  54:source\asw/cfar.c **** 
  55:source\asw/cfar.c **** /*****************************************************************************/
  56:source\asw/cfar.c **** /* Local function prototypes ('static')                                      */
  57:source\asw/cfar.c **** /*****************************************************************************/
  58:source\asw/cfar.c **** 
  59:source\asw/cfar.c **** 
  60:source\asw/cfar.c **** /*****************************************************************************/
  61:source\asw/cfar.c **** /* Function implementation - global ('extern') and local ('static')          */
  62:source\asw/cfar.c **** /*****************************************************************************/
  63:source\asw/cfar.c **** 
  64:source\asw/cfar.c **** 
  65:source\asw/cfar.c **** void CFAR_init(CFAR_input_t *cfarInput){
  28              		.loc 1 65 0
  29              		.cfi_startproc
  30              		@ args = 0, pretend = 0, frame = 0
  31              		@ frame_needed = 0, uses_anonymous_args = 0
  32              		@ link register save eliminated.
  33              	.LVL0:
  66:source\asw/cfar.c ****     cfarInput -> PFA = 0.1;
  34              		.loc 1 66 0
  35 0000 07A3     		adr	r3, .L2
  36 0002 D3E90023 		ldrd	r2, [r3]
  37 0006 C0E90223 		strd	r2, [r0, #8]
  67:source\asw/cfar.c ****     cfarInput -> numberGuardCells = 2;
  38              		.loc 1 67 0
  39 000a 0223     		movs	r3, #2
  40 000c 0374     		strb	r3, [r0, #16]
  68:source\asw/cfar.c ****     cfarInput -> numberofBins = 1024;
  41              		.loc 1 68 0
  42 000e 4FF48063 		mov	r3, #1024
  43 0012 0380     		strh	r3, [r0]	@ movhi
  69:source\asw/cfar.c ****     cfarInput -> numberReferenceCells = 10;
  44              		.loc 1 69 0
  45 0014 0A23     		movs	r3, #10
ARM GAS  C:\Users\zakis\AppData\Local\Temp\cco5DHCH.s 			page 3


  46 0016 4374     		strb	r3, [r0, #17]
  47 0018 7047     		bx	lr
  48              	.L3:
  49 001a 00BFAFF3 		.align	3
  49      0080
  50              	.L2:
  51 0020 9A999999 		.word	-1717986918
  52 0024 9999B93F 		.word	1069128089
  53              		.cfi_endproc
  54              	.LFE167:
  55              		.size	CFAR_init, .-CFAR_init
  56              		.section	.text.CFAR_reset_output,"ax",%progbits
  57              		.align	2
  58              		.global	CFAR_reset_output
  59              		.thumb
  60              		.thumb_func
  61              		.type	CFAR_reset_output, %function
  62              	CFAR_reset_output:
  63              	.LFB168:
  70:source\asw/cfar.c **** 
  71:source\asw/cfar.c **** }
  72:source\asw/cfar.c **** 
  73:source\asw/cfar.c **** void CFAR_reset_output(CFAR_output_t* cfarOutput){
  64              		.loc 1 73 0
  65              		.cfi_startproc
  66              		@ args = 0, pretend = 0, frame = 0
  67              		@ frame_needed = 0, uses_anonymous_args = 0
  68              		@ link register save eliminated.
  69              	.LVL1:
  70 0000 30B4     		push	{r4, r5}
  71              		.cfi_def_cfa_offset 8
  72              		.cfi_offset 4, -8
  73              		.cfi_offset 5, -4
  74:source\asw/cfar.c ****     cfarOutput -> numberofBins = 1024;
  74              		.loc 1 74 0
  75 0002 4FF48063 		mov	r3, #1024
  76 0006 0380     		strh	r3, [r0]	@ movhi
  75:source\asw/cfar.c ****     cfarOutput -> numberTargets = 0;
  77              		.loc 1 75 0
  78 0008 0023     		movs	r3, #0
  79 000a 44F20802 		movw	r2, #16392
  80 000e 8352     		strh	r3, [r0, r2]	@ movhi
  81              	.LVL2:
  82              	.LBB2:
  76:source\asw/cfar.c ****     
  77:source\asw/cfar.c ****     for (int i = 0; i < cfarOutput -> numberofBins; i++) {
  83              		.loc 1 77 0
  84 0010 14E0     		b	.L5
  85              	.LVL3:
  86              	.L6:
  78:source\asw/cfar.c ****         cfarOutput -> fft_psocPower[i] = 0.0;
  87              		.loc 1 78 0 discriminator 3
  88 0012 591C     		adds	r1, r3, #1
  89 0014 00EBC102 		add	r2, r0, r1, lsl #3
  90 0018 0024     		movs	r4, #0
  91 001a 0025     		movs	r5, #0
  92 001c C2E90045 		strd	r4, [r2]
ARM GAS  C:\Users\zakis\AppData\Local\Temp\cco5DHCH.s 			page 4


  79:source\asw/cfar.c ****         cfarOutput -> thresholds[i] = 0.0;
  93              		.loc 1 79 0 discriminator 3
  94 0020 03F20142 		addw	r2, r3, #1025
  95 0024 00EBC202 		add	r2, r0, r2, lsl #3
  96 0028 C2E90045 		strd	r4, [r2]
  80:source\asw/cfar.c ****         cfarOutput -> targetDetected[i] = 0; 
  97              		.loc 1 80 0 discriminator 3
  98 002c 03F50053 		add	r3, r3, #8192
  99              	.LVL4:
 100 0030 0433     		adds	r3, r3, #4
 101              	.LVL5:
 102 0032 00EB4303 		add	r3, r0, r3, lsl #1
 103              	.LVL6:
 104 0036 0022     		movs	r2, #0
 105 0038 5A80     		strh	r2, [r3, #2]	@ movhi
  77:source\asw/cfar.c ****         cfarOutput -> fft_psocPower[i] = 0.0;
 106              		.loc 1 77 0 discriminator 3
 107 003a 0B46     		mov	r3, r1
 108              	.LVL7:
 109              	.L5:
  77:source\asw/cfar.c ****         cfarOutput -> fft_psocPower[i] = 0.0;
 110              		.loc 1 77 0 is_stmt 0 discriminator 1
 111 003c B3F5806F 		cmp	r3, #1024
 112 0040 E7DB     		blt	.L6
 113              	.LBE2:
  81:source\asw/cfar.c ****     }
  82:source\asw/cfar.c **** 
  83:source\asw/cfar.c **** }
 114              		.loc 1 83 0 is_stmt 1
 115 0042 30BC     		pop	{r4, r5}
 116              		.cfi_restore 5
 117              		.cfi_restore 4
 118              		.cfi_def_cfa_offset 0
 119 0044 7047     		bx	lr
 120              		.cfi_endproc
 121              	.LFE168:
 122              		.size	CFAR_reset_output, .-CFAR_reset_output
 123              		.global	__aeabi_i2d
 124              		.global	__aeabi_ddiv
 125              		.global	__aeabi_dsub
 126              		.global	__aeabi_dmul
 127              		.global	__aeabi_dadd
 128              		.global	__aeabi_dcmplt
 129 0046 00BF     		.section	.text.calculateCFAR,"ax",%progbits
 130              		.align	2
 131              		.global	calculateCFAR
 132              		.thumb
 133              		.thumb_func
 134              		.type	calculateCFAR, %function
 135              	calculateCFAR:
 136              	.LFB169:
  84:source\asw/cfar.c **** 
  85:source\asw/cfar.c **** void calculateCFAR(int32 *fftBuffer, CFAR_input_t *input, CFAR_output_t *output){
 137              		.loc 1 85 0
 138              		.cfi_startproc
 139              		@ args = 0, pretend = 0, frame = 24
 140              		@ frame_needed = 0, uses_anonymous_args = 0
ARM GAS  C:\Users\zakis\AppData\Local\Temp\cco5DHCH.s 			page 5


 141              	.LVL8:
 142 0000 2DE9F04F 		push	{r4, r5, r6, r7, r8, r9, r10, fp, lr}
 143              		.cfi_def_cfa_offset 36
 144              		.cfi_offset 4, -36
 145              		.cfi_offset 5, -32
 146              		.cfi_offset 6, -28
 147              		.cfi_offset 7, -24
 148              		.cfi_offset 8, -20
 149              		.cfi_offset 9, -16
 150              		.cfi_offset 10, -12
 151              		.cfi_offset 11, -8
 152              		.cfi_offset 14, -4
 153 0004 87B0     		sub	sp, sp, #28
 154              		.cfi_def_cfa_offset 64
 155 0006 8246     		mov	r10, r0
 156 0008 8B46     		mov	fp, r1
 157 000a 9046     		mov	r8, r2
  86:source\asw/cfar.c ****     double alpha = input -> numberReferenceCells * (pow(input -> PFA, -1.0/input -> numberReference
 158              		.loc 1 86 0
 159 000c 487C     		ldrb	r0, [r1, #17]	@ zero_extendqisi2
 160              	.LVL9:
 161 000e FFF7FEFF 		bl	__aeabi_i2d
 162              	.LVL10:
 163 0012 0446     		mov	r4, r0
 164 0014 0D46     		mov	r5, r1
 165 0016 0246     		mov	r2, r0
 166 0018 0B46     		mov	r3, r1
 167 001a 0020     		movs	r0, #0
 168 001c 6149     		ldr	r1, .L19
 169 001e FFF7FEFF 		bl	__aeabi_ddiv
 170              	.LVL11:
 171 0022 0246     		mov	r2, r0
 172 0024 0B46     		mov	r3, r1
 173 0026 DBE90201 		ldrd	r0, [fp, #8]
 174 002a FFF7FEFF 		bl	pow
 175              	.LVL12:
 176 002e 0022     		movs	r2, #0
 177 0030 5D4B     		ldr	r3, .L19+4
 178 0032 FFF7FEFF 		bl	__aeabi_dsub
 179              	.LVL13:
 180 0036 0246     		mov	r2, r0
 181 0038 0B46     		mov	r3, r1
 182 003a 2046     		mov	r0, r4
 183 003c 2946     		mov	r1, r5
 184 003e FFF7FEFF 		bl	__aeabi_dmul
 185              	.LVL14:
 186 0042 CDE90401 		strd	r0, [sp, #16]
 187              	.LVL15:
 188              	.LBB3:
  87:source\asw/cfar.c ****     
  88:source\asw/cfar.c **** //    memset(fft_psocPower, 0, sizeof(fft_psocPower)); // Clear fft_magnitude array
  89:source\asw/cfar.c ****    
  90:source\asw/cfar.c ****     
  91:source\asw/cfar.c ****     
  92:source\asw/cfar.c ****     for (int i = 0; i < input -> numberofBins; i++) {
 189              		.loc 1 92 0
 190 0046 4FF00009 		mov	r9, #0
ARM GAS  C:\Users\zakis\AppData\Local\Temp\cco5DHCH.s 			page 6


 191 004a 27E0     		b	.L9
 192              	.LVL16:
 193              	.L10:
 194              	.LBB4:
  93:source\asw/cfar.c ****         double real = (double)fftBuffer [2 * i];     // Real component
 195              		.loc 1 93 0 discriminator 3
 196 004c 4FEAC904 		lsl	r4, r9, #3
 197 0050 5AF83900 		ldr	r0, [r10, r9, lsl #3]
 198 0054 FFF7FEFF 		bl	__aeabi_i2d
 199              	.LVL17:
 200 0058 0646     		mov	r6, r0
 201 005a 0F46     		mov	r7, r1
 202              	.LVL18:
  94:source\asw/cfar.c ****         double imag = (double)fftBuffer [2 * i + 1]; // Imaginary component
 203              		.loc 1 94 0 discriminator 3
 204 005c 5444     		add	r4, r4, r10
 205 005e 6068     		ldr	r0, [r4, #4]
 206 0060 FFF7FEFF 		bl	__aeabi_i2d
 207              	.LVL19:
 208 0064 0446     		mov	r4, r0
 209 0066 0D46     		mov	r5, r1
 210              	.LVL20:
  95:source\asw/cfar.c **** 
  96:source\asw/cfar.c ****         output -> fft_psocPower[i] = real * real + imag * imag; // Calculate the power directly
 211              		.loc 1 96 0 discriminator 3
 212 0068 3246     		mov	r2, r6
 213 006a 3B46     		mov	r3, r7
 214 006c 3046     		mov	r0, r6
 215 006e 3946     		mov	r1, r7
 216 0070 FFF7FEFF 		bl	__aeabi_dmul
 217              	.LVL21:
 218 0074 0646     		mov	r6, r0
 219              	.LVL22:
 220 0076 0F46     		mov	r7, r1
 221 0078 2246     		mov	r2, r4
 222 007a 2B46     		mov	r3, r5
 223 007c 2046     		mov	r0, r4
 224 007e 2946     		mov	r1, r5
 225 0080 FFF7FEFF 		bl	__aeabi_dmul
 226              	.LVL23:
 227 0084 0246     		mov	r2, r0
 228 0086 0B46     		mov	r3, r1
 229 0088 3046     		mov	r0, r6
 230 008a 3946     		mov	r1, r7
 231 008c FFF7FEFF 		bl	__aeabi_dadd
 232              	.LVL24:
 233 0090 09F10109 		add	r9, r9, #1
 234              	.LVL25:
 235 0094 08EBC903 		add	r3, r8, r9, lsl #3
 236 0098 C3E90001 		strd	r0, [r3]
 237              	.LVL26:
 238              	.L9:
 239              	.LBE4:
  92:source\asw/cfar.c ****         double real = (double)fftBuffer [2 * i];     // Real component
 240              		.loc 1 92 0 discriminator 1
 241 009c BBF80030 		ldrh	r3, [fp]
 242 00a0 9945     		cmp	r9, r3
ARM GAS  C:\Users\zakis\AppData\Local\Temp\cco5DHCH.s 			page 7


 243 00a2 D3DB     		blt	.L10
 244              	.LBE3:
 245              	.LBB5:
  97:source\asw/cfar.c ****     }
  98:source\asw/cfar.c **** 
  99:source\asw/cfar.c ****     //fft_psocPower[0] = 0.0; // Set the first element to 0
 100:source\asw/cfar.c ****     
 101:source\asw/cfar.c **** 
 102:source\asw/cfar.c ****     for (int i = input -> numberReferenceCells + input -> numberGuardCells + 1; i <= input ->number
 246              		.loc 1 102 0
 247 00a4 9BF81150 		ldrb	r5, [fp, #17]	@ zero_extendqisi2
 248 00a8 9BF81030 		ldrb	r3, [fp, #16]	@ zero_extendqisi2
 249 00ac 1D44     		add	r5, r5, r3
 250 00ae 0135     		adds	r5, r5, #1
 251              	.LVL27:
 252 00b0 69E0     		b	.L11
 253              	.LVL28:
 254              	.L12:
 255              	.LBB6:
 256              	.LBB7:
 103:source\asw/cfar.c ****         // Calculate sum of lagging and leading cells
 104:source\asw/cfar.c ****         double lagging_sum = 0.0;
 105:source\asw/cfar.c ****         double leading_sum = 0.0;
 106:source\asw/cfar.c ****         for (int j = 0; j < input -> numberReferenceCells; j++) {
 107:source\asw/cfar.c ****             lagging_sum += output -> fft_psocPower[i - input -> numberReferenceCells - input -> num
 257              		.loc 1 107 0 discriminator 3
 258 00b2 C9EB0A03 		rsb	r3, r9, r10
 259 00b6 C8EB0303 		rsb	r3, r8, r3
 260 00ba 5B44     		add	r3, r3, fp
 261 00bc 0133     		adds	r3, r3, #1
 262 00be 04EBC303 		add	r3, r4, r3, lsl #3
 263 00c2 D3E90023 		ldrd	r2, [r3]
 264 00c6 DDE90001 		ldrd	r0, [sp]
 265 00ca FFF7FEFF 		bl	__aeabi_dadd
 266              	.LVL29:
 267 00ce CDE90001 		strd	r0, [sp]
 268              	.LVL30:
 108:source\asw/cfar.c ****             leading_sum += output -> fft_psocPower[i + input -> numberGuardCells + 1 + j];
 269              		.loc 1 108 0 discriminator 3
 270 00d2 0AEB0803 		add	r3, r10, r8
 271 00d6 0133     		adds	r3, r3, #1
 272 00d8 5B44     		add	r3, r3, fp
 273 00da 0133     		adds	r3, r3, #1
 274 00dc 04EBC303 		add	r3, r4, r3, lsl #3
 275 00e0 D3E90023 		ldrd	r2, [r3]
 276 00e4 3046     		mov	r0, r6
 277              	.LVL31:
 278 00e6 3946     		mov	r1, r7
 279 00e8 FFF7FEFF 		bl	__aeabi_dadd
 280              	.LVL32:
 281 00ec 0646     		mov	r6, r0
 282              	.LVL33:
 283 00ee 0F46     		mov	r7, r1
 284              	.LVL34:
 106:source\asw/cfar.c ****             lagging_sum += output -> fft_psocPower[i - input -> numberReferenceCells - input -> num
 285              		.loc 1 106 0 discriminator 3
 286 00f0 0BF1010B 		add	fp, fp, #1
ARM GAS  C:\Users\zakis\AppData\Local\Temp\cco5DHCH.s 			page 8


 287              	.LVL35:
 288 00f4 0AE0     		b	.L15
 289              	.LVL36:
 290              	.L16:
 291              	.LBE7:
 292              	.LBE6:
 293 00f6 0024     		movs	r4, #0
 294 00f8 0026     		movs	r6, #0
 295 00fa 0027     		movs	r7, #0
 296 00fc CDE90067 		strd	r6, [sp]
 297 0100 CDF80CB0 		str	fp, [sp, #12]
 298 0104 A346     		mov	fp, r4
 299 0106 4446     		mov	r4, r8
 300 0108 D046     		mov	r8, r10
 301              	.LVL37:
 302 010a AA46     		mov	r10, r5
 303              	.L15:
 304              	.LVL38:
 305              	.LBB9:
 306              	.LBB8:
 106:source\asw/cfar.c ****             lagging_sum += output -> fft_psocPower[i - input -> numberReferenceCells - input -> num
 307              		.loc 1 106 0 is_stmt 0 discriminator 1
 308 010c CB45     		cmp	fp, r9
 309 010e D0DB     		blt	.L12
 310 0110 5546     		mov	r5, r10
 311              	.LVL39:
 312 0112 DDF80CB0 		ldr	fp, [sp, #12]
 313              	.LVL40:
 314 0116 A046     		mov	r8, r4
 315              	.LBE8:
 109:source\asw/cfar.c ****         }
 110:source\asw/cfar.c **** 
 111:source\asw/cfar.c ****         // Calculate noise level
 112:source\asw/cfar.c ****         double noise_level = (lagging_sum + leading_sum) / (2.0 * input -> numberReferenceCells); 
 316              		.loc 1 112 0 is_stmt 1
 317 0118 3246     		mov	r2, r6
 318 011a 3B46     		mov	r3, r7
 319 011c DDE90001 		ldrd	r0, [sp]
 320 0120 FFF7FEFF 		bl	__aeabi_dadd
 321              	.LVL41:
 322 0124 0646     		mov	r6, r0
 323              	.LVL42:
 324 0126 0F46     		mov	r7, r1
 325 0128 4846     		mov	r0, r9
 326 012a FFF7FEFF 		bl	__aeabi_i2d
 327              	.LVL43:
 328 012e 0246     		mov	r2, r0
 329 0130 0B46     		mov	r3, r1
 330 0132 FFF7FEFF 		bl	__aeabi_dadd
 331              	.LVL44:
 332 0136 0246     		mov	r2, r0
 333 0138 0B46     		mov	r3, r1
 334 013a 3046     		mov	r0, r6
 335 013c 3946     		mov	r1, r7
 336 013e FFF7FEFF 		bl	__aeabi_ddiv
 337              	.LVL45:
 113:source\asw/cfar.c **** 
ARM GAS  C:\Users\zakis\AppData\Local\Temp\cco5DHCH.s 			page 9


 114:source\asw/cfar.c ****         // Calculate threshold
 115:source\asw/cfar.c ****         double threshold = noise_level * alpha;
 338              		.loc 1 115 0
 339 0142 0246     		mov	r2, r0
 340 0144 0B46     		mov	r3, r1
 341 0146 DDE90401 		ldrd	r0, [sp, #16]
 342              	.LVL46:
 343 014a FFF7FEFF 		bl	__aeabi_dmul
 344              	.LVL47:
 116:source\asw/cfar.c **** 
 117:source\asw/cfar.c ****         // Store threshold
 118:source\asw/cfar.c ****         output -> thresholds[i] = threshold;
 345              		.loc 1 118 0
 346 014e 0AF20143 		addw	r3, r10, #1025
 347 0152 04EBC303 		add	r3, r4, r3, lsl #3
 348 0156 C3E90001 		strd	r0, [r3]
 119:source\asw/cfar.c **** 
 120:source\asw/cfar.c ****         // Detect target
 121:source\asw/cfar.c ****         if (output -> fft_psocPower[i] > threshold) {
 349              		.loc 1 121 0
 350 015a 6B1C     		adds	r3, r5, #1
 351 015c 04EBC303 		add	r3, r4, r3, lsl #3
 352 0160 D3E90023 		ldrd	r2, [r3]
 353 0164 FFF7FEFF 		bl	__aeabi_dcmplt
 354              	.LVL48:
 355 0168 60B1     		cbz	r0, .L13
 356              	.LVL49:
 122:source\asw/cfar.c ****             
 123:source\asw/cfar.c ****             output -> numberTargets = output -> numberTargets + 1;
 357              		.loc 1 123 0
 358 016a 44F20802 		movw	r2, #16392
 359 016e A35A     		ldrh	r3, [r4, r2]
 360 0170 0133     		adds	r3, r3, #1
 361 0172 9BB2     		uxth	r3, r3
 362 0174 A352     		strh	r3, [r4, r2]	@ movhi
 124:source\asw/cfar.c ****             output -> targetDetected[output -> numberTargets] = i; // Set flag for target detected 
 363              		.loc 1 124 0
 364 0176 03F50053 		add	r3, r3, #8192
 365 017a 0433     		adds	r3, r3, #4
 366 017c 04EB4303 		add	r3, r4, r3, lsl #1
 367 0180 A3F802A0 		strh	r10, [r3, #2]	@ movhi
 368              	.L13:
 369              	.LBE9:
 102:source\asw/cfar.c ****         // Calculate sum of lagging and leading cells
 370              		.loc 1 102 0 discriminator 2
 371 0184 0135     		adds	r5, r5, #1
 372              	.LVL50:
 373              	.L11:
 102:source\asw/cfar.c ****         // Calculate sum of lagging and leading cells
 374              		.loc 1 102 0 is_stmt 0 discriminator 1
 375 0186 BBF80030 		ldrh	r3, [fp]
 376 018a 9BF81190 		ldrb	r9, [fp, #17]	@ zero_extendqisi2
 377 018e C9EB0303 		rsb	r3, r9, r3
 378 0192 9BF810A0 		ldrb	r10, [fp, #16]	@ zero_extendqisi2
 379 0196 CAEB0303 		rsb	r3, r10, r3
 380 019a 9D42     		cmp	r5, r3
 381 019c ABDD     		ble	.L16
ARM GAS  C:\Users\zakis\AppData\Local\Temp\cco5DHCH.s 			page 10


 382              	.LBE5:
 125:source\asw/cfar.c ****         } 
 126:source\asw/cfar.c ****         
 127:source\asw/cfar.c ****     }
 128:source\asw/cfar.c **** }
 383              		.loc 1 128 0 is_stmt 1
 384 019e 07B0     		add	sp, sp, #28
 385              		.cfi_def_cfa_offset 36
 386              		@ sp needed
 387 01a0 BDE8F08F 		pop	{r4, r5, r6, r7, r8, r9, r10, fp, pc}
 388              	.LVL51:
 389              	.L20:
 390              		.align	2
 391              	.L19:
 392 01a4 0000F0BF 		.word	-1074790400
 393 01a8 0000F03F 		.word	1072693248
 394              		.cfi_endproc
 395              	.LFE169:
 396              		.size	calculateCFAR, .-calculateCFAR
 397              		.comm	DMA_FFT_UART_TD,3,4
 398              		.comm	DMA_FFT_UART_Chan,1,1
 399              		.comm	DMA_MEM_UART_TD,1,4
 400              		.comm	DMA_MEM_UART_Chan,1,1
 401              		.comm	DMA_ADC_MEM_TD,1,4
 402              		.comm	DMA_ADC_MEM_Chan,1,1
 403              		.text
 404              	.Letext0:
 405              		.file 2 "c:\\program files (x86)\\cypress\\psoc creator\\4.4\\psoc creator\\import\\gnu\\arm\\5.4.
 406              		.file 3 "c:\\program files (x86)\\cypress\\psoc creator\\4.4\\psoc creator\\import\\gnu\\arm\\5.4.
 407              		.file 4 "Generated_Source\\PSoC5/cytypes.h"
 408              		.file 5 "Generated_Source\\PSoC5/ErikaOS_common_ee_types.inc"
 409              		.file 6 "Generated_Source\\PSoC5/ErikaOS_cortex_mx_ee_cpu.inc"
 410              		.file 7 "source\\asw\\cfar.h"
 411              		.file 8 "Generated_Source\\PSoC5/ErikaOS_ee_oo_intfunc.inc"
 412              		.file 9 "Generated_Source\\PSoC5/ErikaOS_cortex_mx_ee_context.inc"
 413              		.file 10 "Generated_Source\\PSoC5/ErikaOS_common_ee_primitives.inc"
 414              		.file 11 "Generated_Source\\PSoC5/core_cm3.h"
 415              		.file 12 ".\\source\\bsw/dma.h"
 416              		.file 13 "c:\\program files (x86)\\cypress\\psoc creator\\4.4\\psoc creator\\import\\gnu\\arm\\5.4