ARM GAS  C:\Users\zakis\AppData\Local\Temp\ccbTZOgX.s 			page 1


   1              		.syntax unified
   2              		.cpu cortex-m3
   3              		.fpu softvfp
   4              		.eabi_attribute 20, 1
   5              		.eabi_attribute 21, 1
   6              		.eabi_attribute 23, 3
   7              		.eabi_attribute 24, 1
   8              		.eabi_attribute 25, 1
   9              		.eabi_attribute 26, 1
  10              		.eabi_attribute 30, 1
  11              		.eabi_attribute 34, 1
  12              		.eabi_attribute 18, 4
  13              		.thumb
  14              		.syntax unified
  15              		.file	"dac_adc.c"
  16              		.text
  17              	.Ltext0:
  18              		.cfi_sections	.debug_frame
  19              		.section	.text.ADC_Init,"ax",%progbits
  20              		.align	2
  21              		.global	ADC_Init
  22              		.thumb
  23              		.thumb_func
  24              		.type	ADC_Init, %function
  25              	ADC_Init:
  26              	.LFB110:
  27              		.file 1 "source\\bsw\\dac_adc.c"
   1:source\bsw/dac_adc.c **** /**
   2:source\bsw/dac_adc.c **** * \file <filename>
   3:source\bsw/dac_adc.c **** * \author <author-name>
   4:source\bsw/dac_adc.c **** * \date <date>
   5:source\bsw/dac_adc.c **** *
   6:source\bsw/dac_adc.c **** * \brief <Symbolic File name>
   7:source\bsw/dac_adc.c **** *
   8:source\bsw/dac_adc.c **** * \copyright Copyright ©2016
   9:source\bsw/dac_adc.c **** * Department of electrical engineering and information technology, Hochschule Darmstadt - Universit
  10:source\bsw/dac_adc.c **** * Permission to use, copy, modify, and distribute this software and its documentation for education
  11:source\bsw/dac_adc.c **** * (unless permitted by h_da) and official h_da projects, is hereby granted for enrolled students of
  12:source\bsw/dac_adc.c **** * this paragraph and the following paragraph appear in all copies, modifications, and distributions
  13:source\bsw/dac_adc.c **** * Contact Prof.Dr.-Ing. Peter Fromm, peter.fromm@h-da.de, Birkenweg 8 64295 Darmstadt - GERMANY for
  14:source\bsw/dac_adc.c **** *
  15:source\bsw/dac_adc.c **** * \warning This software is a PROTOTYPE version and is not designed or intended for use in producti
  16:source\bsw/dac_adc.c **** * The user represents and warrants that it will NOT use or redistribute the Software for such purpo
  17:source\bsw/dac_adc.c **** * This prototype is for research purposes only. This software is provided "AS IS," without a warran
  18:source\bsw/dac_adc.c **** */
  19:source\bsw/dac_adc.c **** 
  20:source\bsw/dac_adc.c **** /*****************************************************************************/
  21:source\bsw/dac_adc.c **** /* Include files                                                             */
  22:source\bsw/dac_adc.c **** /*****************************************************************************/
  23:source\bsw/dac_adc.c **** 
  24:source\bsw/dac_adc.c **** #include "project.h"
  25:source\bsw/dac_adc.c **** #include "dac_adc.h"
  26:source\bsw/dac_adc.c **** 
  27:source\bsw/dac_adc.c **** 
  28:source\bsw/dac_adc.c **** /*****************************************************************************/
  29:source\bsw/dac_adc.c **** /* Local pre-processor symbols/macros ('#define')                            */
  30:source\bsw/dac_adc.c **** /*****************************************************************************/
ARM GAS  C:\Users\zakis\AppData\Local\Temp\ccbTZOgX.s 			page 2


  31:source\bsw/dac_adc.c **** 
  32:source\bsw/dac_adc.c **** 
  33:source\bsw/dac_adc.c **** 
  34:source\bsw/dac_adc.c **** 
  35:source\bsw/dac_adc.c **** /*****************************************************************************/
  36:source\bsw/dac_adc.c **** /* Global variable definitions (declared in header file with 'extern')       */
  37:source\bsw/dac_adc.c **** /*****************************************************************************/
  38:source\bsw/dac_adc.c **** 
  39:source\bsw/dac_adc.c **** /*****************************************************************************/
  40:source\bsw/dac_adc.c **** /* Local type definitions ('typedef')                                        */
  41:source\bsw/dac_adc.c **** /*****************************************************************************/
  42:source\bsw/dac_adc.c **** 
  43:source\bsw/dac_adc.c **** 
  44:source\bsw/dac_adc.c **** 
  45:source\bsw/dac_adc.c **** /*****************************************************************************/
  46:source\bsw/dac_adc.c **** /* Local variable definitions ('static')                                     */
  47:source\bsw/dac_adc.c **** /*****************************************************************************/
  48:source\bsw/dac_adc.c **** 
  49:source\bsw/dac_adc.c **** /*****************************************************************************/
  50:source\bsw/dac_adc.c **** /* Local function prototypes ('static')                                      */
  51:source\bsw/dac_adc.c **** /*****************************************************************************/
  52:source\bsw/dac_adc.c **** 
  53:source\bsw/dac_adc.c **** 
  54:source\bsw/dac_adc.c **** 
  55:source\bsw/dac_adc.c **** /*****************************************************************************/
  56:source\bsw/dac_adc.c **** /* Function implementation - global ('extern') and local ('static')          */
  57:source\bsw/dac_adc.c **** /*****************************************************************************/
  58:source\bsw/dac_adc.c **** 
  59:source\bsw/dac_adc.c **** // Initialize ADC
  60:source\bsw/dac_adc.c **** RC_t ADC_Init(){
  28              		.loc 1 60 0
  29              		.cfi_startproc
  30              		@ args = 0, pretend = 0, frame = 0
  31              		@ frame_needed = 0, uses_anonymous_args = 0
  32 0000 08B5     		push	{r3, lr}
  33              		.cfi_def_cfa_offset 8
  34              		.cfi_offset 3, -8
  35              		.cfi_offset 14, -4
  61:source\bsw/dac_adc.c ****     ADC_DelSig_Start();
  36              		.loc 1 61 0
  37 0002 FFF7FEFF 		bl	ADC_DelSig_Start
  38              	.LVL0:
  62:source\bsw/dac_adc.c **** 
  63:source\bsw/dac_adc.c **** }
  39              		.loc 1 63 0
  40 0006 08BD     		pop	{r3, pc}
  41              		.cfi_endproc
  42              	.LFE110:
  43              		.size	ADC_Init, .-ADC_Init
  44              		.section	.text.DAC_Init,"ax",%progbits
  45              		.align	2
  46              		.global	DAC_Init
  47              		.thumb
  48              		.thumb_func
  49              		.type	DAC_Init, %function
  50              	DAC_Init:
  51              	.LFB111:
ARM GAS  C:\Users\zakis\AppData\Local\Temp\ccbTZOgX.s 			page 3


  64:source\bsw/dac_adc.c **** 
  65:source\bsw/dac_adc.c **** // Initialize DAC
  66:source\bsw/dac_adc.c **** RC_t DAC_Init(){
  52              		.loc 1 66 0
  53              		.cfi_startproc
  54              		@ args = 0, pretend = 0, frame = 0
  55              		@ frame_needed = 0, uses_anonymous_args = 0
  56              		@ link register save eliminated.
  67:source\bsw/dac_adc.c ****     return RC_SUCCESS;
  68:source\bsw/dac_adc.c **** }
  57              		.loc 1 68 0
  58 0000 0020     		movs	r0, #0
  59 0002 7047     		bx	lr
  60              		.cfi_endproc
  61              	.LFE111:
  62              		.size	DAC_Init, .-DAC_Init
  63              		.section	.text.DAC_Set,"ax",%progbits
  64              		.align	2
  65              		.global	DAC_Set
  66              		.thumb
  67              		.thumb_func
  68              		.type	DAC_Set, %function
  69              	DAC_Set:
  70              	.LFB112:
  69:source\bsw/dac_adc.c **** 
  70:source\bsw/dac_adc.c **** // Set DAC State
  71:source\bsw/dac_adc.c **** RC_t DAC_Set(DAC_ONOFF_t dacOnOff){
  71              		.loc 1 71 0
  72              		.cfi_startproc
  73              		@ args = 0, pretend = 0, frame = 0
  74              		@ frame_needed = 0, uses_anonymous_args = 0
  75              	.LVL1:
  76 0000 08B5     		push	{r3, lr}
  77              		.cfi_def_cfa_offset 8
  78              		.cfi_offset 3, -8
  79              		.cfi_offset 14, -4
  72:source\bsw/dac_adc.c ****     if (dacOnOff == DAC_ON){
  80              		.loc 1 72 0
  81 0002 0128     		cmp	r0, #1
  82 0004 02D1     		bne	.L5
  83              	.LBB2:
  73:source\bsw/dac_adc.c ****         WaveDAC8_Start();
  84              		.loc 1 73 0
  85 0006 FFF7FEFF 		bl	WaveDAC8_Start
  86              	.LVL2:
  87              	.LBE2:
  88 000a 02E0     		b	.L6
  89              	.LVL3:
  90              	.L5:
  74:source\bsw/dac_adc.c ****     }
  75:source\bsw/dac_adc.c ****     else if (dacOnOff == DAC_OFF){
  91              		.loc 1 75 0
  92 000c 08B9     		cbnz	r0, .L6
  93              	.LBB3:
  76:source\bsw/dac_adc.c ****         WaveDAC8_Stop();
  94              		.loc 1 76 0
  95 000e FFF7FEFF 		bl	WaveDAC8_Stop
ARM GAS  C:\Users\zakis\AppData\Local\Temp\ccbTZOgX.s 			page 4


  96              	.LVL4:
  97              	.L6:
  98              	.LBE3:
  77:source\bsw/dac_adc.c ****     }
  78:source\bsw/dac_adc.c ****     return RC_SUCCESS;
  79:source\bsw/dac_adc.c **** 
  80:source\bsw/dac_adc.c **** }
  99              		.loc 1 80 0
 100 0012 0020     		movs	r0, #0
 101 0014 08BD     		pop	{r3, pc}
 102              		.cfi_endproc
 103              	.LFE112:
 104              		.size	DAC_Set, .-DAC_Set
 105 0016 00BF     		.section	.text.ADC_Set,"ax",%progbits
 106              		.align	2
 107              		.global	ADC_Set
 108              		.thumb
 109              		.thumb_func
 110              		.type	ADC_Set, %function
 111              	ADC_Set:
 112              	.LFB113:
  81:source\bsw/dac_adc.c **** 
  82:source\bsw/dac_adc.c **** // Set ADC State
  83:source\bsw/dac_adc.c **** RC_t ADC_Set(ADC_ONOFF_t adcOnOff){
 113              		.loc 1 83 0
 114              		.cfi_startproc
 115              		@ args = 0, pretend = 0, frame = 0
 116              		@ frame_needed = 0, uses_anonymous_args = 0
 117              	.LVL5:
 118 0000 08B5     		push	{r3, lr}
 119              		.cfi_def_cfa_offset 8
 120              		.cfi_offset 3, -8
 121              		.cfi_offset 14, -4
  84:source\bsw/dac_adc.c ****     if (adcOnOff == ADC_ON){
 122              		.loc 1 84 0
 123 0002 0128     		cmp	r0, #1
 124 0004 02D1     		bne	.L9
  85:source\bsw/dac_adc.c ****        ADC_DelSig_StartConvert();
 125              		.loc 1 85 0
 126 0006 FFF7FEFF 		bl	ADC_DelSig_StartConvert
 127              	.LVL6:
 128 000a 02E0     		b	.L10
 129              	.LVL7:
 130              	.L9:
  86:source\bsw/dac_adc.c ****     }
  87:source\bsw/dac_adc.c ****     else if (adcOnOff == ADC_OFF){
 131              		.loc 1 87 0
 132 000c 08B9     		cbnz	r0, .L10
  88:source\bsw/dac_adc.c ****        ADC_DelSig_StopConvert();
 133              		.loc 1 88 0
 134 000e FFF7FEFF 		bl	ADC_DelSig_StopConvert
 135              	.LVL8:
 136              	.L10:
  89:source\bsw/dac_adc.c ****     }
  90:source\bsw/dac_adc.c ****     return RC_SUCCESS;
  91:source\bsw/dac_adc.c **** }...
 137              		.loc 1 91 0
ARM GAS  C:\Users\zakis\AppData\Local\Temp\ccbTZOgX.s 			page 5


 138 0012 0020     		movs	r0, #0
 139 0014 08BD     		pop	{r3, pc}
 140              		.cfi_endproc
 141              	.LFE113:
 142              		.size	ADC_Set, .-ADC_Set
 143 0016 00BF     		.text
 144              	.Letext0:
 145              		.file 2 "c:\\program files (x86)\\cypress\\psoc creator\\4.4\\psoc creator\\import\\gnu\\arm\\5.4.
 146              		.file 3 "c:\\program files (x86)\\cypress\\psoc creator\\4.4\\psoc creator\\import\\gnu\\arm\\5.4.
 147              		.file 4 "Generated_Source\\PSoC5/ErikaOS_common_ee_types.inc"
 148              		.file 5 "Generated_Source\\PSoC5/ErikaOS_cortex_mx_ee_cpu.inc"
 149              		.file 6 "source\\bsw\\global.h"
 150              		.file 7 "source\\bsw\\dac_adc.h"
 151              		.file 8 "Generated_Source\\PSoC5/ErikaOS_ee_oo_intfunc.inc"
 152              		.file 9 "Generated_Source\\PSoC5/ErikaOS_cortex_mx_ee_context.inc"
 153              		.file 10 "Generated_Source\\PSoC5/ErikaOS_common_ee_primitives.inc"
 154              		.file 11 "Generated_Source\\PSoC5/core_cm3.h"
 155              		.file 12 "Generated_Source\\PSoC5/ADC_DelSig.h"