ARM GAS  C:\Users\zakis\AppData\Local\Temp\ccJ6THkg.s 			page 1


   1              		.syntax unified
   2              		.cpu cortex-m3
   3              		.fpu softvfp
   4              		.eabi_attribute 20, 1
   5              		.eabi_attribute 21, 1
   6              		.eabi_attribute 23, 3
   7              		.eabi_attribute 24, 1
   8              		.eabi_attribute 25, 1
   9              		.eabi_attribute 26, 1
  10              		.eabi_attribute 30, 1
  11              		.eabi_attribute 34, 1
  12              		.eabi_attribute 18, 4
  13              		.thumb
  14              		.syntax unified
  15              		.file	"detector.c"
  16              		.text
  17              	.Ltext0:
  18              		.cfi_sections	.debug_frame
  19              		.section	.text.DETECTOR_initDrivers,"ax",%progbits
  20              		.align	2
  21              		.global	DETECTOR_initDrivers
  22              		.thumb
  23              		.thumb_func
  24              		.type	DETECTOR_initDrivers, %function
  25              	DETECTOR_initDrivers:
  26              	.LFB167:
  27              		.file 1 "source\\asw\\detector.c"
   1:source\asw/detector.c **** /**
   2:source\asw/detector.c **** * \brief Implements the Reaction Game logic
   3:source\asw/detector.c **** *
   4:source\asw/detector.c **** * \copyright Copyright ©2016
   5:source\asw/detector.c **** * Department of electrical engineering and information technology, Hochschule Darmstadt - Universit
   6:source\asw/detector.c **** * Permission to use, copy, modify, and distribute this software and its documentation for education
   7:source\asw/detector.c **** * (unless permitted by h_da) and official h_da projects, is hereby granted for enrolled students of
   8:source\asw/detector.c **** * this paragraph and the following paragraph appear in all copies, modifications, and distributions
   9:source\asw/detector.c **** * Contact Prof.Dr.-Ing. Peter Fromm, peter.fromm@h-da.de, Birkenweg 8 64295 Darmstadt - GERMANY for
  10:source\asw/detector.c **** *
  11:source\asw/detector.c **** * \warning This software is a PROTOTYPE version and is not designed or intended for use in producti
  12:source\asw/detector.c **** * The user represents and warrants that it will NOT use or redistribute the Software for such purpo
  13:source\asw/detector.c **** * This prototype is for research purposes only. This software is provided "AS IS," without a warran
  14:source\asw/detector.c **** */
  15:source\asw/detector.c **** 
  16:source\asw/detector.c **** /*****************************************************************************/
  17:source\asw/detector.c **** /* Include files                                                             */
  18:source\asw/detector.c **** /*****************************************************************************/
  19:source\asw/detector.c **** 
  20:source\asw/detector.c **** 
  21:source\asw/detector.c **** #include "project.h"
  22:source\asw/detector.c **** #include "detector.h"
  23:source\asw/detector.c **** #include "uart.h"
  24:source\asw/detector.c **** #include "dma.h"
  25:source\asw/detector.c **** #include "dac_adc.h"
  26:source\asw/detector.c **** #include "led.h"
  27:source\asw/detector.c **** #include "uart.h"
  28:source\asw/detector.c **** 
  29:source\asw/detector.c **** #include "fft_application.h"
  30:source\asw/detector.c **** 
ARM GAS  C:\Users\zakis\AppData\Local\Temp\ccJ6THkg.s 			page 2


  31:source\asw/detector.c **** /*****************************************************************************/
  32:source\asw/detector.c **** /* Local pre-processor symbols/macros ('#define')                            */
  33:source\asw/detector.c **** /*****************************************************************************/
  34:source\asw/detector.c **** 
  35:source\asw/detector.c **** /*****************************************************************************/
  36:source\asw/detector.c **** /* Global variable definitions (declared in header file with 'extern')       */
  37:source\asw/detector.c **** /*****************************************************************************/
  38:source\asw/detector.c **** 
  39:source\asw/detector.c **** /*****************************************************************************/
  40:source\asw/detector.c **** /* Local type definitions ('typedef')                                        */
  41:source\asw/detector.c **** /*****************************************************************************/
  42:source\asw/detector.c **** 
  43:source\asw/detector.c **** /*****************************************************************************/
  44:source\asw/detector.c **** /* Local variable definitions ('static')                                     */
  45:source\asw/detector.c **** /*****************************************************************************/
  46:source\asw/detector.c **** 
  47:source\asw/detector.c **** /**
  48:source\asw/detector.c ****  * @brief Variable representing the clock frequency for the reaction game module.
  49:source\asw/detector.c ****  */
  50:source\asw/detector.c **** 
  51:source\asw/detector.c **** 
  52:source\asw/detector.c **** /*****************************************************************************/
  53:source\asw/detector.c **** /* Local function prototypes ('static')                                      */
  54:source\asw/detector.c **** /*****************************************************************************/
  55:source\asw/detector.c **** CFAR_input_t cfarInput;
  56:source\asw/detector.c **** 
  57:source\asw/detector.c **** CFAR_output_t cfarOutput; 
  58:source\asw/detector.c **** 
  59:source\asw/detector.c **** /*****************************************************************************/
  60:source\asw/detector.c **** /* Function implementation - global ('extern') and local ('static')          */
  61:source\asw/detector.c **** /*****************************************************************************/
  62:source\asw/detector.c **** 
  63:source\asw/detector.c **** // INIT all low level drivers
  64:source\asw/detector.c **** RC_t DETECTOR_initDrivers(){
  28              		.loc 1 64 0
  29              		.cfi_startproc
  30              		@ args = 0, pretend = 0, frame = 0
  31              		@ frame_needed = 0, uses_anonymous_args = 0
  32 0000 08B5     		push	{r3, lr}
  33              		.cfi_def_cfa_offset 8
  34              		.cfi_offset 3, -8
  35              		.cfi_offset 14, -4
  65:source\asw/detector.c ****     UART_init();
  36              		.loc 1 65 0
  37 0002 FFF7FEFF 		bl	UART_init
  38              	.LVL0:
  66:source\asw/detector.c ****     DMA_Init();
  39              		.loc 1 66 0
  40 0006 FFF7FEFF 		bl	DMA_Init
  41              	.LVL1:
  67:source\asw/detector.c ****     ADC_Init();
  42              		.loc 1 67 0
  43 000a FFF7FEFF 		bl	ADC_Init
  44              	.LVL2:
  68:source\asw/detector.c ****     //DAC_Init();
  69:source\asw/detector.c **** 
  70:source\asw/detector.c ****     return RC_SUCCESS;
ARM GAS  C:\Users\zakis\AppData\Local\Temp\ccJ6THkg.s 			page 3


  71:source\asw/detector.c **** }
  45              		.loc 1 71 0
  46 000e 0020     		movs	r0, #0
  47 0010 08BD     		pop	{r3, pc}
  48              		.cfi_endproc
  49              	.LFE167:
  50              		.size	DETECTOR_initDrivers, .-DETECTOR_initDrivers
  51 0012 00BF     		.section	.text.DETECTOR_setLedState,"ax",%progbits
  52              		.align	2
  53              		.global	DETECTOR_setLedState
  54              		.thumb
  55              		.thumb_func
  56              		.type	DETECTOR_setLedState, %function
  57              	DETECTOR_setLedState:
  58              	.LFB169:
  72:source\asw/detector.c **** 
  73:source\asw/detector.c **** // Init Detector object attributes and drivers used by the object
  74:source\asw/detector.c **** RC_t DETECTOR_init(Detector_t* detector){
  75:source\asw/detector.c ****     DETECTOR_initDrivers();
  76:source\asw/detector.c ****     
  77:source\asw/detector.c ****     detector->detectorState = IDLE;
  78:source\asw/detector.c ****     DETECTOR_setLedState(IDLE);
  79:source\asw/detector.c ****     
  80:source\asw/detector.c ****     detector->numberOfTransfers = 0;
  81:source\asw/detector.c ****     detector->samplingFinished = FALSE;
  82:source\asw/detector.c ****     detector->readyToSend = FALSE;
  83:source\asw/detector.c ****     detector->memoryToUARTFinished = FALSE;
  84:source\asw/detector.c ****     
  85:source\asw/detector.c ****     CFAR_init(&cfarInput);
  86:source\asw/detector.c ****     
  87:source\asw/detector.c ****     return RC_SUCCESS;    
  88:source\asw/detector.c **** }
  89:source\asw/detector.c **** 
  90:source\asw/detector.c **** RC_t DETECTOR_setLedState(States_t state){
  59              		.loc 1 90 0
  60              		.cfi_startproc
  61              		@ args = 0, pretend = 0, frame = 0
  62              		@ frame_needed = 0, uses_anonymous_args = 0
  63              	.LVL3:
  64 0000 08B5     		push	{r3, lr}
  65              		.cfi_def_cfa_offset 8
  66              		.cfi_offset 3, -8
  67              		.cfi_offset 14, -4
  91:source\asw/detector.c ****     switch (state){
  68              		.loc 1 91 0
  69 0002 0128     		cmp	r0, #1
  70 0004 08D0     		beq	.L5
  71 0006 10B1     		cbz	r0, .L6
  72 0008 0228     		cmp	r0, #2
  73 000a 0AD0     		beq	.L7
  74 000c 0DE0     		b	.L4
  75              	.L6:
  92:source\asw/detector.c ****         case (IDLE): {
  93:source\asw/detector.c ****             //LED_Set(LED_ALL, LED_OFF);
  94:source\asw/detector.c ****             LED_Set(LED_RED, LED_ON);
  76              		.loc 1 94 0
  77 000e 0121     		movs	r1, #1
ARM GAS  C:\Users\zakis\AppData\Local\Temp\ccJ6THkg.s 			page 4


  78 0010 0020     		movs	r0, #0
  79              	.LVL4:
  80 0012 FFF7FEFF 		bl	LED_Set
  81              	.LVL5:
  95:source\asw/detector.c ****             
  96:source\asw/detector.c ****         }
  97:source\asw/detector.c ****         break;
  82              		.loc 1 97 0
  83 0016 08E0     		b	.L4
  84              	.LVL6:
  85              	.L5:
  98:source\asw/detector.c ****         
  99:source\asw/detector.c ****         case (SAMPLING): {
 100:source\asw/detector.c ****             //LED_Set(LED_ALL, LED_OFF);
 101:source\asw/detector.c ****             //LED_Set(LED_ORANGE, LED_ON);
 102:source\asw/detector.c ****             LED_Set(LED_RED, LED_OFF);
  86              		.loc 1 102 0
  87 0018 0021     		movs	r1, #0
  88 001a 0846     		mov	r0, r1
  89              	.LVL7:
  90 001c FFF7FEFF 		bl	LED_Set
  91              	.LVL8:
 103:source\asw/detector.c ****             
 104:source\asw/detector.c ****         }
 105:source\asw/detector.c ****         break;
  92              		.loc 1 105 0
  93 0020 03E0     		b	.L4
  94              	.LVL9:
  95              	.L7:
 106:source\asw/detector.c ****         
 107:source\asw/detector.c ****         case (UART_TRANSFER): {
 108:source\asw/detector.c ****             //LED_Set(LED_ALL, LED_OFF);
 109:source\asw/detector.c ****             //LED_Set(LED_GREEN, LED_ON);
 110:source\asw/detector.c ****             LED_Set(LED_RED, LED_OFF);
  96              		.loc 1 110 0
  97 0022 0021     		movs	r1, #0
  98 0024 0846     		mov	r0, r1
  99              	.LVL10:
 100 0026 FFF7FEFF 		bl	LED_Set
 101              	.LVL11:
 102              	.L4:
 111:source\asw/detector.c ****             
 112:source\asw/detector.c ****         }
 113:source\asw/detector.c ****         break;
 114:source\asw/detector.c ****     }
 115:source\asw/detector.c ****     
 116:source\asw/detector.c ****     return RC_SUCCESS;
 117:source\asw/detector.c **** }
 103              		.loc 1 117 0
 104 002a 0020     		movs	r0, #0
 105 002c 08BD     		pop	{r3, pc}
 106              		.cfi_endproc
 107              	.LFE169:
 108              		.size	DETECTOR_setLedState, .-DETECTOR_setLedState
 109 002e 00BF     		.section	.text.DETECTOR_init,"ax",%progbits
 110              		.align	2
 111              		.global	DETECTOR_init
ARM GAS  C:\Users\zakis\AppData\Local\Temp\ccJ6THkg.s 			page 5


 112              		.thumb
 113              		.thumb_func
 114              		.type	DETECTOR_init, %function
 115              	DETECTOR_init:
 116              	.LFB168:
  74:source\asw/detector.c ****     DETECTOR_initDrivers();
 117              		.loc 1 74 0
 118              		.cfi_startproc
 119              		@ args = 0, pretend = 0, frame = 0
 120              		@ frame_needed = 0, uses_anonymous_args = 0
 121              	.LVL12:
 122 0000 38B5     		push	{r3, r4, r5, lr}
 123              		.cfi_def_cfa_offset 16
 124              		.cfi_offset 3, -16
 125              		.cfi_offset 4, -12
 126              		.cfi_offset 5, -8
 127              		.cfi_offset 14, -4
 128 0002 0546     		mov	r5, r0
  75:source\asw/detector.c ****     
 129              		.loc 1 75 0
 130 0004 FFF7FEFF 		bl	DETECTOR_initDrivers
 131              	.LVL13:
  77:source\asw/detector.c ****     DETECTOR_setLedState(IDLE);
 132              		.loc 1 77 0
 133 0008 0024     		movs	r4, #0
 134 000a 2C70     		strb	r4, [r5]
  78:source\asw/detector.c ****     
 135              		.loc 1 78 0
 136 000c 2046     		mov	r0, r4
 137 000e FFF7FEFF 		bl	DETECTOR_setLedState
 138              	.LVL14:
  80:source\asw/detector.c ****     detector->samplingFinished = FALSE;
 139              		.loc 1 80 0
 140 0012 6C70     		strb	r4, [r5, #1]
  81:source\asw/detector.c ****     detector->readyToSend = FALSE;
 141              		.loc 1 81 0
 142 0014 AC70     		strb	r4, [r5, #2]
  82:source\asw/detector.c ****     detector->memoryToUARTFinished = FALSE;
 143              		.loc 1 82 0
 144 0016 EC70     		strb	r4, [r5, #3]
  83:source\asw/detector.c ****     
 145              		.loc 1 83 0
 146 0018 2C71     		strb	r4, [r5, #4]
  85:source\asw/detector.c ****     
 147              		.loc 1 85 0
 148 001a 0248     		ldr	r0, .L11
 149 001c FFF7FEFF 		bl	CFAR_init
 150              	.LVL15:
  88:source\asw/detector.c **** 
 151              		.loc 1 88 0
 152 0020 2046     		mov	r0, r4
 153 0022 38BD     		pop	{r3, r4, r5, pc}
 154              	.LVL16:
 155              	.L12:
 156              		.align	2
 157              	.L11:
 158 0024 00000000 		.word	cfarInput
ARM GAS  C:\Users\zakis\AppData\Local\Temp\ccJ6THkg.s 			page 6


 159              		.cfi_endproc
 160              	.LFE168:
 161              		.size	DETECTOR_init, .-DETECTOR_init
 162              		.section	.text.DETECTOR_processEvents,"ax",%progbits
 163              		.align	2
 164              		.global	DETECTOR_processEvents
 165              		.thumb
 166              		.thumb_func
 167              		.type	DETECTOR_processEvents, %function
 168              	DETECTOR_processEvents:
 169              	.LFB170:
 118:source\asw/detector.c **** 
 119:source\asw/detector.c **** // Process events as they get triggered based on a State Machine Architecture
 120:source\asw/detector.c **** RC_t DETECTOR_processEvents(Detector_t* detector, EventMaskType ev){
 170              		.loc 1 120 0
 171              		.cfi_startproc
 172              		@ args = 0, pretend = 0, frame = 0
 173              		@ frame_needed = 0, uses_anonymous_args = 0
 174              	.LVL17:
 175 0000 70B5     		push	{r4, r5, r6, lr}
 176              		.cfi_def_cfa_offset 16
 177              		.cfi_offset 4, -16
 178              		.cfi_offset 5, -12
 179              		.cfi_offset 6, -8
 180              		.cfi_offset 14, -4
 181 0002 0546     		mov	r5, r0
 182 0004 0C46     		mov	r4, r1
 121:source\asw/detector.c ****     
 122:source\asw/detector.c ****             switch (detector -> detectorState){
 183              		.loc 1 122 0
 184 0006 0378     		ldrb	r3, [r0]	@ zero_extendqisi2
 185 0008 012B     		cmp	r3, #1
 186 000a 1CD0     		beq	.L15
 187 000c 13B1     		cbz	r3, .L16
 188 000e 022B     		cmp	r3, #2
 189 0010 68D0     		beq	.L17
 190 0012 A4E0     		b	.L14
 191              	.L16:
 123:source\asw/detector.c ****             /*  IDLE states waits for the button to get pushed.
 124:source\asw/detector.c ****             *   
 125:source\asw/detector.c ****             *   ev_pushButton:          Triggered when button is pressed. The event turns ON the
 126:source\asw/detector.c ****             *                               ADC, DAC, and DMA modules and sampling is started and d
 127:source\asw/detector.c ****             *                               transferred from ADC output to a memory location with t
 128:source\asw/detector.c ****             *                               DMA module. State changes from IDLE to SAMPLING
 129:source\asw/detector.c ****             */
 130:source\asw/detector.c ****             case (IDLE):
 131:source\asw/detector.c ****             {   
 132:source\asw/detector.c ****                 if (ev & ev_pushButton){
 192              		.loc 1 132 0
 193 0014 11F0010F 		tst	r1, #1
 194 0018 00F0A180 		beq	.L14
 133:source\asw/detector.c ****   
 134:source\asw/detector.c ****                     DMA_Set(DMA_ADC_TO_MEMORY, DMA_ON);
 195              		.loc 1 134 0
 196 001c 0121     		movs	r1, #1
 197              	.LVL18:
 198 001e 0020     		movs	r0, #0
ARM GAS  C:\Users\zakis\AppData\Local\Temp\ccJ6THkg.s 			page 7


 199              	.LVL19:
 200 0020 FFF7FEFF 		bl	DMA_Set
 201              	.LVL20:
 135:source\asw/detector.c ****                     //DAC_Set(DAC_ON);
 136:source\asw/detector.c ****                     ADC_Set(ADC_ON);
 202              		.loc 1 136 0
 203 0024 0120     		movs	r0, #1
 204 0026 FFF7FEFF 		bl	ADC_Set
 205              	.LVL21:
 137:source\asw/detector.c ****                     
 138:source\asw/detector.c ****                     detector -> detectorState = SAMPLING;
 206              		.loc 1 138 0
 207 002a 0124     		movs	r4, #1
 208              	.LVL22:
 209 002c 2C70     		strb	r4, [r5]
 139:source\asw/detector.c ****                     DETECTOR_setLedState(SAMPLING);
 210              		.loc 1 139 0
 211 002e 2046     		mov	r0, r4
 212 0030 FFF7FEFF 		bl	DETECTOR_setLedState
 213              	.LVL23:
 140:source\asw/detector.c ****                     LED_Set(LED_ORANGE, LED_OFF);
 214              		.loc 1 140 0
 215 0034 0021     		movs	r1, #0
 216 0036 2046     		mov	r0, r4
 217 0038 FFF7FEFF 		bl	LED_Set
 218              	.LVL24:
 141:source\asw/detector.c ****                     LED_Set(LED_GREEN, LED_OFF);
 219              		.loc 1 141 0
 220 003c 0021     		movs	r1, #0
 221 003e 0220     		movs	r0, #2
 222 0040 FFF7FEFF 		bl	LED_Set
 223              	.LVL25:
 224 0044 8BE0     		b	.L14
 225              	.LVL26:
 226              	.L15:
 142:source\asw/detector.c ****                     
 143:source\asw/detector.c ****                 }
 144:source\asw/detector.c ****             }
 145:source\asw/detector.c ****             break;
 146:source\asw/detector.c ****             
 147:source\asw/detector.c ****             /*  SAMPLING state waits continously samples the data and waits for a trigger character
 148:source\asw/detector.c ****             *   ev_sReceived:           Triggered when UART receives an 's'. Enables a flag to indi
 149:source\asw/detector.c ****             *                               can be sent 
 150:source\asw/detector.c ****             *   ev_samplingFinished:    Triggered when ADC finishes sampling. If external system is
 151:source\asw/detector.c ****             *                               existing data is discarded and another event is trigger
 152:source\asw/detector.c ****             *   ev_reSample:            Triggered when sampling needs to be restarted.
 153:source\asw/detector.c ****             *   ev_send:                Triggered when sampling is finished and external system is 
 154:source\asw/detector.c ****                                             Calculate FFT and CA-CFAR. State changes from SAMPLING 
 155:source\asw/detector.c ****             */
 156:source\asw/detector.c ****             case (SAMPLING):
 157:source\asw/detector.c ****             {
 158:source\asw/detector.c ****                 if (ev & ev_sReceived){
 227              		.loc 1 158 0
 228 0046 11F0020F 		tst	r1, #2
 229 004a 01D0     		beq	.L18
 159:source\asw/detector.c ****                     
 160:source\asw/detector.c ****                     detector -> readyToSend = TRUE;
ARM GAS  C:\Users\zakis\AppData\Local\Temp\ccJ6THkg.s 			page 8


 230              		.loc 1 160 0
 231 004c 0123     		movs	r3, #1
 232 004e C370     		strb	r3, [r0, #3]
 233              	.L18:
 161:source\asw/detector.c ****                 }
 162:source\asw/detector.c ****                 if (ev & ev_samplingFinished){
 234              		.loc 1 162 0
 235 0050 14F0040F 		tst	r4, #4
 236 0054 12D0     		beq	.L19
 163:source\asw/detector.c ****                     
 164:source\asw/detector.c ****                     DMA_Set(DMA_ADC_TO_MEMORY, DMA_OFF);
 237              		.loc 1 164 0
 238 0056 0021     		movs	r1, #0
 239              	.LVL27:
 240 0058 0846     		mov	r0, r1
 241              	.LVL28:
 242 005a FFF7FEFF 		bl	DMA_Set
 243              	.LVL29:
 165:source\asw/detector.c ****                     
 166:source\asw/detector.c ****                     if (detector -> readyToSend == FALSE){
 244              		.loc 1 166 0
 245 005e EB78     		ldrb	r3, [r5, #3]	@ zero_extendqisi2
 246 0060 1BB9     		cbnz	r3, .L20
 167:source\asw/detector.c **** 
 168:source\asw/detector.c ****                         SetEvent(tsk_control, ev_reSample);
 247              		.loc 1 168 0
 248 0062 2021     		movs	r1, #32
 249 0064 0220     		movs	r0, #2
 250 0066 FFF7FEFF 		bl	EE_oo_SetEvent
 251              	.LVL30:
 252              	.L20:
 169:source\asw/detector.c ****                     }
 170:source\asw/detector.c ****                     if (detector ->readyToSend == TRUE){
 253              		.loc 1 170 0
 254 006a EB78     		ldrb	r3, [r5, #3]	@ zero_extendqisi2
 255 006c 012B     		cmp	r3, #1
 256 006e 05D1     		bne	.L19
 171:source\asw/detector.c **** 
 172:source\asw/detector.c ****                         detector -> readyToSend = FALSE;
 257              		.loc 1 172 0
 258 0070 0023     		movs	r3, #0
 259 0072 EB70     		strb	r3, [r5, #3]
 173:source\asw/detector.c ****                         
 174:source\asw/detector.c ****                         SetEvent(tsk_control, ev_send);
 260              		.loc 1 174 0
 261 0074 0821     		movs	r1, #8
 262 0076 0220     		movs	r0, #2
 263 0078 FFF7FEFF 		bl	EE_oo_SetEvent
 264              	.LVL31:
 265              	.L19:
 175:source\asw/detector.c ****                     }
 176:source\asw/detector.c ****                 } 
 177:source\asw/detector.c ****                 if (ev & ev_reSample){
 266              		.loc 1 177 0
 267 007c 14F0200F 		tst	r4, #32
 268 0080 03D0     		beq	.L21
 178:source\asw/detector.c **** 
ARM GAS  C:\Users\zakis\AppData\Local\Temp\ccJ6THkg.s 			page 9


 179:source\asw/detector.c ****                     DMA_Set(DMA_ADC_TO_MEMORY, DMA_ON);
 269              		.loc 1 179 0
 270 0082 0121     		movs	r1, #1
 271 0084 0020     		movs	r0, #0
 272 0086 FFF7FEFF 		bl	DMA_Set
 273              	.LVL32:
 274              	.L21:
 180:source\asw/detector.c ****                     
 181:source\asw/detector.c ****                 }
 182:source\asw/detector.c ****                 if (ev & ev_send){
 275              		.loc 1 182 0
 276 008a 14F0080F 		tst	r4, #8
 277 008e 66D0     		beq	.L14
 183:source\asw/detector.c ****                     
 184:source\asw/detector.c ****                     DMA_Set(DMA_ADC_TO_MEMORY, DMA_OFF);
 278              		.loc 1 184 0
 279 0090 0021     		movs	r1, #0
 280 0092 0846     		mov	r0, r1
 281 0094 FFF7FEFF 		bl	DMA_Set
 282              	.LVL33:
 185:source\asw/detector.c ****                     fft_app(ADCBuffer,fftBuffer,1024); //
 283              		.loc 1 185 0
 284 0098 324E     		ldr	r6, .L29
 285 009a 4FF48062 		mov	r2, #1024
 286 009e 3146     		mov	r1, r6
 287 00a0 3148     		ldr	r0, .L29+4
 288 00a2 FFF7FEFF 		bl	fft_app
 289              	.LVL34:
 186:source\asw/detector.c ****                     
 187:source\asw/detector.c ****                     CFAR_reset_output(&cfarOutput);
 290              		.loc 1 187 0
 291 00a6 314C     		ldr	r4, .L29+8
 292              	.LVL35:
 293 00a8 2046     		mov	r0, r4
 294 00aa FFF7FEFF 		bl	CFAR_reset_output
 295              	.LVL36:
 188:source\asw/detector.c ****                     calculateCFAR(fftBuffer, &cfarInput, &cfarOutput); 
 296              		.loc 1 188 0
 297 00ae 2246     		mov	r2, r4
 298 00b0 2F49     		ldr	r1, .L29+12
 299 00b2 3046     		mov	r0, r6
 300 00b4 FFF7FEFF 		bl	calculateCFAR
 301              	.LVL37:
 189:source\asw/detector.c ****                     if (cfarOutput.numberTargets > 0){
 302              		.loc 1 189 0
 303 00b8 44F20803 		movw	r3, #16392
 304 00bc E35C     		ldrb	r3, [r4, r3]	@ zero_extendqisi2
 305 00be 23B1     		cbz	r3, .L22
 190:source\asw/detector.c ****                         LED_Set(LED_GREEN, LED_ON);
 306              		.loc 1 190 0
 307 00c0 0121     		movs	r1, #1
 308 00c2 0220     		movs	r0, #2
 309 00c4 FFF7FEFF 		bl	LED_Set
 310              	.LVL38:
 311 00c8 03E0     		b	.L23
 312              	.L22:
 191:source\asw/detector.c ****                     } else {
ARM GAS  C:\Users\zakis\AppData\Local\Temp\ccJ6THkg.s 			page 10


 192:source\asw/detector.c ****                         LED_Set(LED_GREEN, LED_OFF);
 313              		.loc 1 192 0
 314 00ca 0021     		movs	r1, #0
 315 00cc 0220     		movs	r0, #2
 316 00ce FFF7FEFF 		bl	LED_Set
 317              	.LVL39:
 318              	.L23:
 193:source\asw/detector.c ****                     }
 194:source\asw/detector.c ****                     detector -> detectorState = UART_TRANSFER;
 319              		.loc 1 194 0
 320 00d2 0220     		movs	r0, #2
 321 00d4 2870     		strb	r0, [r5]
 195:source\asw/detector.c ****                     DETECTOR_setLedState(UART_TRANSFER);
 322              		.loc 1 195 0
 323 00d6 FFF7FEFF 		bl	DETECTOR_setLedState
 324              	.LVL40:
 196:source\asw/detector.c ****                     
 197:source\asw/detector.c ****                     #define DMA_Samples 1
 198:source\asw/detector.c ****                     
 199:source\asw/detector.c ****                     #if DMA_Samples == 1
 200:source\asw/detector.c ****                         DMA_Set(DMA_MEMORY_TO_UART, DMA_ON); //
 325              		.loc 1 200 0
 326 00da 0121     		movs	r1, #1
 327 00dc 0846     		mov	r0, r1
 328 00de FFF7FEFF 		bl	DMA_Set
 329              	.LVL41:
 330 00e2 3CE0     		b	.L14
 331              	.LVL42:
 332              	.L17:
 201:source\asw/detector.c ****                     #endif
 202:source\asw/detector.c ****                     
 203:source\asw/detector.c ****                     #if DMA_Samples == 0
 204:source\asw/detector.c ****                     for (int i = 0; i < 1024; ++i){
 205:source\asw/detector.c ****                         uint8_t byte0 = (ADCBuffer[i] >> 8) & 0xFF; // MSB
 206:source\asw/detector.c ****                         uint8_t byte1 = ADCBuffer[i] & 0xFF;         // LAB
 207:source\asw/detector.c **** 
 208:source\asw/detector.c ****                         UART_LOG_PutChar(byte1);
 209:source\asw/detector.c ****                         UART_LOG_PutChar(byte0);
 210:source\asw/detector.c ****                         
 211:source\asw/detector.c ****                         SetEvent(tsk_control, ev_sendFFT);
 212:source\asw/detector.c ****                     
 213:source\asw/detector.c ****                     }
 214:source\asw/detector.c ****                     #endif
 215:source\asw/detector.c **** 
 216:source\asw/detector.c ****                 }
 217:source\asw/detector.c ****                 
 218:source\asw/detector.c ****             }
 219:source\asw/detector.c ****             break;
 220:source\asw/detector.c **** 
 221:source\asw/detector.c ****             /*  UART_TRANSFER state transfers the sampled data over UART and waits for a feedback
 222:source\asw/detector.c ****             *   ev_sendFFT:         Trigered when FFT bytes are to be sent over UART
 223:source\asw/detector.c ****             *   ev_noSReceived:         Trigered when sampling needs to be started again
 224:source\asw/detector.c ****             *   ev_nReceived:         Trigered when MATLAB does not detect movement
 225:source\asw/detector.c ****             *   ev_tReceived:         Trigered when MATLAB detects movement
 226:source\asw/detector.c ****             *   ev_UARTOver:            Triggered when UART receives an 'o'. Marks end of transfer.
 227:source\asw/detector.c ****             *                               transfers < 10. Sampling starts again. If number of tra
 228:source\asw/detector.c ****             *                               is considered complete, and system waits for a button p
ARM GAS  C:\Users\zakis\AppData\Local\Temp\ccJ6THkg.s 			page 11


 229:source\asw/detector.c ****             *                               from UART_TRANSFER to IDLE.
 230:source\asw/detector.c ****             
 231:source\asw/detector.c ****             *    
 232:source\asw/detector.c **** 
 233:source\asw/detector.c ****             */
 234:source\asw/detector.c ****             case (UART_TRANSFER):
 235:source\asw/detector.c ****             {
 236:source\asw/detector.c ****                 if (ev & ev_sendFFT){
 333              		.loc 1 236 0
 334 00e4 11F0400F 		tst	r1, #64
 335 00e8 07D0     		beq	.L24
 237:source\asw/detector.c ****                    
 238:source\asw/detector.c ****                     DMA_Set(DMA_MEMORY_TO_UART, DMA_OFF);
 336              		.loc 1 238 0
 337 00ea 0021     		movs	r1, #0
 338              	.LVL43:
 339 00ec 0120     		movs	r0, #1
 340              	.LVL44:
 341 00ee FFF7FEFF 		bl	DMA_Set
 342              	.LVL45:
 239:source\asw/detector.c ****                     
 240:source\asw/detector.c ****                     #define DMA_FFT 1
 241:source\asw/detector.c ****                     
 242:source\asw/detector.c ****                     #if DMA_FFT == 1
 243:source\asw/detector.c **** 
 244:source\asw/detector.c ****                     DMA_Set(DMA_FFT_TO_UART, DMA_ON); //
 343              		.loc 1 244 0
 344 00f2 0121     		movs	r1, #1
 345 00f4 0220     		movs	r0, #2
 346 00f6 FFF7FEFF 		bl	DMA_Set
 347              	.LVL46:
 348              	.L24:
 245:source\asw/detector.c ****                     #endif 
 246:source\asw/detector.c ****                     
 247:source\asw/detector.c ****                     #if DMA_FFT == 0
 248:source\asw/detector.c ****                     
 249:source\asw/detector.c ****                     fft_app(ADCBuffer,fftBuffer,1024); //
 250:source\asw/detector.c ****                     for (int i = 0; i < 2048; ++i){
 251:source\asw/detector.c ****                         uint8_t byte0 = (fftBuffer[i] >> 24) & 0xFF; // MSB
 252:source\asw/detector.c ****                         uint8_t byte1 = (fftBuffer[i] >> 16) & 0xFF;
 253:source\asw/detector.c ****                         uint8_t byte2 = (fftBuffer[i] >> 8) & 0xFF;
 254:source\asw/detector.c ****                         uint8_t byte3 = fftBuffer[i] & 0xFF;         // LSB
 255:source\asw/detector.c **** 
 256:source\asw/detector.c ****                         UART_LOG_PutChar(byte3);
 257:source\asw/detector.c ****                         UART_LOG_PutChar(byte2);
 258:source\asw/detector.c ****                         UART_LOG_PutChar(byte1);
 259:source\asw/detector.c ****                         UART_LOG_PutChar(byte0);
 260:source\asw/detector.c ****                     
 261:source\asw/detector.c ****                     }
 262:source\asw/detector.c ****                     #endif
 263:source\asw/detector.c **** 
 264:source\asw/detector.c ****                 }
 265:source\asw/detector.c ****                 
 266:source\asw/detector.c ****                 
 267:source\asw/detector.c ****                 if (ev & ev_oReceived){
 349              		.loc 1 267 0
 350 00fa 14F0100F 		tst	r4, #16
ARM GAS  C:\Users\zakis\AppData\Local\Temp\ccJ6THkg.s 			page 12


 351 00fe 20D0     		beq	.L25
 268:source\asw/detector.c ****                     
 269:source\asw/detector.c ****                   
 270:source\asw/detector.c ****                     DMA_Set(DMA_FFT_TO_UART, DMA_OFF); //
 352              		.loc 1 270 0
 353 0100 0021     		movs	r1, #0
 354 0102 0220     		movs	r0, #2
 355 0104 FFF7FEFF 		bl	DMA_Set
 356              	.LVL47:
 271:source\asw/detector.c ****                     
 272:source\asw/detector.c ****                     
 273:source\asw/detector.c ****                     detector -> numberOfTransfers += 1;
 357              		.loc 1 273 0
 358 0108 6B78     		ldrb	r3, [r5, #1]	@ zero_extendqisi2
 359 010a 0133     		adds	r3, r3, #1
 360 010c DBB2     		uxtb	r3, r3
 361 010e 6B70     		strb	r3, [r5, #1]
 274:source\asw/detector.c ****                     if (detector -> numberOfTransfers < 10){
 362              		.loc 1 274 0
 363 0110 092B     		cmp	r3, #9
 364 0112 08D8     		bhi	.L26
 275:source\asw/detector.c ****                         detector -> detectorState = SAMPLING;
 365              		.loc 1 275 0
 366 0114 0120     		movs	r0, #1
 367 0116 2870     		strb	r0, [r5]
 276:source\asw/detector.c ****                         DETECTOR_setLedState(SAMPLING);
 368              		.loc 1 276 0
 369 0118 FFF7FEFF 		bl	DETECTOR_setLedState
 370              	.LVL48:
 277:source\asw/detector.c ****                         
 278:source\asw/detector.c ****                         SetEvent(tsk_control, ev_reSample);
 371              		.loc 1 278 0
 372 011c 2021     		movs	r1, #32
 373 011e 0220     		movs	r0, #2
 374 0120 FFF7FEFF 		bl	EE_oo_SetEvent
 375              	.LVL49:
 376 0124 0DE0     		b	.L25
 377              	.L26:
 279:source\asw/detector.c ****                     }
 280:source\asw/detector.c ****                     else if (detector -> numberOfTransfers == 10){
 378              		.loc 1 280 0
 379 0126 0A2B     		cmp	r3, #10
 380 0128 0BD1     		bne	.L25
 281:source\asw/detector.c ****                         detector -> detectorState = IDLE;
 381              		.loc 1 281 0
 382 012a 0026     		movs	r6, #0
 383 012c 2E70     		strb	r6, [r5]
 282:source\asw/detector.c ****                         DETECTOR_setLedState(IDLE);
 384              		.loc 1 282 0
 385 012e 3046     		mov	r0, r6
 386 0130 FFF7FEFF 		bl	DETECTOR_setLedState
 387              	.LVL50:
 283:source\asw/detector.c **** 
 284:source\asw/detector.c ****                         //DAC_Set(DAC_OFF);
 285:source\asw/detector.c ****                         ADC_Set(ADC_OFF);
 388              		.loc 1 285 0
 389 0134 3046     		mov	r0, r6
ARM GAS  C:\Users\zakis\AppData\Local\Temp\ccJ6THkg.s 			page 13


 390 0136 FFF7FEFF 		bl	ADC_Set
 391              	.LVL51:
 286:source\asw/detector.c ****                         
 287:source\asw/detector.c ****                         detector -> numberOfTransfers = 0;
 392              		.loc 1 287 0
 393 013a 6E70     		strb	r6, [r5, #1]
 288:source\asw/detector.c ****                         detector -> samplingFinished = FALSE;
 394              		.loc 1 288 0
 395 013c AE70     		strb	r6, [r5, #2]
 289:source\asw/detector.c ****                         detector ->readyToSend = FALSE;
 396              		.loc 1 289 0
 397 013e EE70     		strb	r6, [r5, #3]
 290:source\asw/detector.c ****                         detector ->memoryToUARTFinished = FALSE;
 398              		.loc 1 290 0
 399 0140 2E71     		strb	r6, [r5, #4]
 400              	.L25:
 291:source\asw/detector.c ****                         
 292:source\asw/detector.c ****                         
 293:source\asw/detector.c ****                     }
 294:source\asw/detector.c ****                 }
 295:source\asw/detector.c ****                 if (ev & ev_nReceived){
 401              		.loc 1 295 0
 402 0142 14F4807F 		tst	r4, #256
 403 0146 03D0     		beq	.L27
 296:source\asw/detector.c ****                     LED_Set(LED_ORANGE, LED_OFF);
 404              		.loc 1 296 0
 405 0148 0021     		movs	r1, #0
 406 014a 0120     		movs	r0, #1
 407 014c FFF7FEFF 		bl	LED_Set
 408              	.LVL52:
 409              	.L27:
 297:source\asw/detector.c ****                 }
 298:source\asw/detector.c ****                 if (ev & ev_tReceived){
 410              		.loc 1 298 0
 411 0150 14F0800F 		tst	r4, #128
 412 0154 03D0     		beq	.L14
 299:source\asw/detector.c ****                     LED_Set(LED_ORANGE, LED_ON);
 413              		.loc 1 299 0
 414 0156 0121     		movs	r1, #1
 415 0158 0846     		mov	r0, r1
 416 015a FFF7FEFF 		bl	LED_Set
 417              	.LVL53:
 418              	.L14:
 300:source\asw/detector.c ****                 }
 301:source\asw/detector.c ****             }
 302:source\asw/detector.c ****             break;
 303:source\asw/detector.c ****         
 304:source\asw/detector.c ****         }
 305:source\asw/detector.c ****     return RC_SUCCESS;
 306:source\asw/detector.c **** }...
 419              		.loc 1 306 0
 420 015e 0020     		movs	r0, #0
 421 0160 70BD     		pop	{r4, r5, r6, pc}
 422              	.LVL54:
 423              	.L30:
 424 0162 00BF     		.align	2
 425              	.L29:
ARM GAS  C:\Users\zakis\AppData\Local\Temp\ccJ6THkg.s 			page 14


 426 0164 00000000 		.word	fftBuffer
 427 0168 00000000 		.word	ADCBuffer
 428 016c 00000000 		.word	cfarOutput
 429 0170 00000000 		.word	cfarInput
 430              		.cfi_endproc
 431              	.LFE170:
 432              		.size	DETECTOR_processEvents, .-DETECTOR_processEvents
 433              		.comm	cfarOutput,25616,8
 434              		.comm	cfarInput,24,8
 435              		.comm	DMA_FFT_UART_TD,3,4
 436              		.comm	DMA_FFT_UART_Chan,1,1
 437              		.comm	DMA_MEM_UART_TD,1,4
 438              		.comm	DMA_MEM_UART_Chan,1,1
 439              		.comm	DMA_ADC_MEM_TD,1,4
 440              		.comm	DMA_ADC_MEM_Chan,1,1
 441              		.text
 442              	.Letext0:
 443              		.file 2 "c:\\program files (x86)\\cypress\\psoc creator\\4.4\\psoc creator\\import\\gnu\\arm\\5.4.
 444              		.file 3 "c:\\program files (x86)\\cypress\\psoc creator\\4.4\\psoc creator\\import\\gnu\\arm\\5.4.
 445              		.file 4 "Generated_Source\\PSoC5/cytypes.h"
 446              		.file 5 "Generated_Source\\PSoC5/ErikaOS_common_ee_types.inc"
 447              		.file 6 "Generated_Source\\PSoC5/ErikaOS_cortex_mx_ee_cpu.inc"
 448              		.file 7 "Generated_Source\\PSoC5/ErikaOS_ee_oo_common.inc"
 449              		.file 8 ".\\source\\bsw/global.h"
 450              		.file 9 ".\\source\\bsw/led.h"
 451              		.file 10 ".\\source\\bsw/dac_adc.h"
 452              		.file 11 "source\\asw\\cfar.h"
 453              		.file 12 "source\\asw\\detector.h"
 454              		.file 13 ".\\source\\bsw/dma.h"
 455              		.file 14 "Generated_Source\\PSoC5/ErikaOS_ee_oo_intfunc.inc"
 456              		.file 15 "Generated_Source\\PSoC5/ErikaOS_cortex_mx_ee_context.inc"
 457              		.file 16 "Generated_Source\\PSoC5/ErikaOS_common_ee_primitives.inc"
 458              		.file 17 "Generated_Source\\PSoC5/core_cm3.h"
 459              		.file 18 ".\\source\\bsw/uart.h"
 460              		.file 19 "Generated_Source\\PSoC5/ErikaOS_ee_oo_kernel.inc"
 461              		.file 20 ".\\source\\bsw\\fft_application/fft_application.h"