ARM GAS  C:\Users\zakis\AppData\Local\Temp\ccBllY2f.s 			page 1


   1              		.syntax unified
   2              		.cpu cortex-m3
   3              		.fpu softvfp
   4              		.eabi_attribute 20, 1
   5              		.eabi_attribute 21, 1
   6              		.eabi_attribute 23, 3
   7              		.eabi_attribute 24, 1
   8              		.eabi_attribute 25, 1
   9              		.eabi_attribute 26, 1
  10              		.eabi_attribute 30, 1
  11              		.eabi_attribute 34, 1
  12              		.eabi_attribute 18, 4
  13              		.thumb
  14              		.syntax unified
  15              		.file	"dma.c"
  16              		.text
  17              	.Ltext0:
  18              		.cfi_sections	.debug_frame
  19              		.section	.text.DMA_Init,"ax",%progbits
  20              		.align	2
  21              		.global	DMA_Init
  22              		.thumb
  23              		.thumb_func
  24              		.type	DMA_Init, %function
  25              	DMA_Init:
  26              	.LFB166:
  27              		.file 1 "source\\bsw\\dma.c"
   1:source\bsw/dma.c **** /**
   2:source\bsw/dma.c **** * \file <filename>
   3:source\bsw/dma.c **** * \author <author-name>
   4:source\bsw/dma.c **** * \date <date>
   5:source\bsw/dma.c **** *
   6:source\bsw/dma.c **** * \brief <Symbolic File name>
   7:source\bsw/dma.c **** *
   8:source\bsw/dma.c **** * \copyright Copyright ©2016
   9:source\bsw/dma.c **** * Department of electrical engineering and information technology, Hochschule Darmstadt - Universit
  10:source\bsw/dma.c **** * Permission to use, copy, modify, and distribute this software and its documentation for education
  11:source\bsw/dma.c **** * (unless permitted by h_da) and official h_da projects, is hereby granted for enrolled students of
  12:source\bsw/dma.c **** * this paragraph and the following paragraph appear in all copies, modifications, and distributions
  13:source\bsw/dma.c **** * Contact Prof.Dr.-Ing. Peter Fromm, peter.fromm@h-da.de, Birkenweg 8 64295 Darmstadt - GERMANY for
  14:source\bsw/dma.c **** *
  15:source\bsw/dma.c **** * \warning This software is a PROTOTYPE version and is not designed or intended for use in producti
  16:source\bsw/dma.c **** * The user represents and warrants that it will NOT use or redistribute the Software for such purpo
  17:source\bsw/dma.c **** * This prototype is for research purposes only. This software is provided "AS IS," without a warran
  18:source\bsw/dma.c **** */
  19:source\bsw/dma.c **** 
  20:source\bsw/dma.c **** /*****************************************************************************/
  21:source\bsw/dma.c **** /* Include files                                                             */
  22:source\bsw/dma.c **** /*****************************************************************************/
  23:source\bsw/dma.c **** 
  24:source\bsw/dma.c **** #include "project.h"
  25:source\bsw/dma.c **** #include "dma.h"
  26:source\bsw/dma.c **** 
  27:source\bsw/dma.c **** 
  28:source\bsw/dma.c **** /*****************************************************************************/
  29:source\bsw/dma.c **** /* Local pre-processor symbols/macros ('#define')                            */
  30:source\bsw/dma.c **** /*****************************************************************************/
ARM GAS  C:\Users\zakis\AppData\Local\Temp\ccBllY2f.s 			page 2


  31:source\bsw/dma.c **** 
  32:source\bsw/dma.c **** 
  33:source\bsw/dma.c **** 
  34:source\bsw/dma.c **** 
  35:source\bsw/dma.c **** /*****************************************************************************/
  36:source\bsw/dma.c **** /* Global variable definitions (declared in header file with 'extern')       */
  37:source\bsw/dma.c **** /*****************************************************************************/
  38:source\bsw/dma.c **** 
  39:source\bsw/dma.c **** /*****************************************************************************/
  40:source\bsw/dma.c **** /* Local type definitions ('typedef')                                        */
  41:source\bsw/dma.c **** /*****************************************************************************/
  42:source\bsw/dma.c **** 
  43:source\bsw/dma.c **** 
  44:source\bsw/dma.c **** 
  45:source\bsw/dma.c **** /*****************************************************************************/
  46:source\bsw/dma.c **** /* Local variable definitions ('static')                                     */
  47:source\bsw/dma.c **** /*****************************************************************************/
  48:source\bsw/dma.c **** uint16_t ADCBuffer[1024]; // buffer to store sampled data
  49:source\bsw/dma.c **** int32 fftBuffer[2* NO_OF_SAMPLES];
  50:source\bsw/dma.c **** /*****************************************************************************/
  51:source\bsw/dma.c **** /* Local function prototypes ('static')                                      */
  52:source\bsw/dma.c **** /*****************************************************************************/
  53:source\bsw/dma.c **** 
  54:source\bsw/dma.c **** 
  55:source\bsw/dma.c **** 
  56:source\bsw/dma.c **** /*****************************************************************************/
  57:source\bsw/dma.c **** /* Function implementation - global ('extern') and local ('static')          */
  58:source\bsw/dma.c **** /*****************************************************************************/
  59:source\bsw/dma.c **** 
  60:source\bsw/dma.c **** // Initialize DMA
  61:source\bsw/dma.c **** RC_t DMA_Init(){
  28              		.loc 1 61 0
  29              		.cfi_startproc
  30              		@ args = 0, pretend = 0, frame = 0
  31              		@ frame_needed = 0, uses_anonymous_args = 0
  32 0000 70B5     		push	{r4, r5, r6, lr}
  33              		.cfi_def_cfa_offset 16
  34              		.cfi_offset 4, -16
  35              		.cfi_offset 5, -12
  36              		.cfi_offset 6, -8
  37              		.cfi_offset 14, -4
  62:source\bsw/dma.c ****     /* DMA Configuration for DMA_ADC_MEM */
  63:source\bsw/dma.c ****     DMA_ADC_MEM_Chan = DMA_ADC_MEM_DmaInitialize(
  38              		.loc 1 63 0
  39 0002 41F6FF73 		movw	r3, #8191
  40 0006 4FF48042 		mov	r2, #16384
  41 000a 0121     		movs	r1, #1
  42 000c 0220     		movs	r0, #2
  43 000e FFF7FEFF 		bl	DMA_ADC_MEM_DmaInitialize
  44              	.LVL0:
  45 0012 2D4E     		ldr	r6, .L3
  46 0014 3070     		strb	r0, [r6]
  64:source\bsw/dma.c ****         DMA_ADC_MEM_BYTES_PER_BURST, 
  65:source\bsw/dma.c ****         DMA_ADC_MEM_REQUEST_PER_BURST, 
  66:source\bsw/dma.c ****         HI16(DMA_ADC_MEM_SRC_BASE), 
  67:source\bsw/dma.c ****         HI16(DMA_ADC_MEM_DST_BASE));
  68:source\bsw/dma.c ****     DMA_ADC_MEM_TD[0] = CyDmaTdAllocate();
ARM GAS  C:\Users\zakis\AppData\Local\Temp\ccBllY2f.s 			page 3


  47              		.loc 1 68 0
  48 0016 FFF7FEFF 		bl	CyDmaTdAllocate
  49              	.LVL1:
  50 001a 2C4D     		ldr	r5, .L3+4
  51 001c 2870     		strb	r0, [r5]
  69:source\bsw/dma.c ****     CyDmaTdSetConfiguration(DMA_ADC_MEM_TD[0], 2048, CY_DMA_DISABLE_TD, DMA_ADC_MEM__TD_TERMOUT_EN 
  52              		.loc 1 69 0
  53 001e 0623     		movs	r3, #6
  54 0020 FE22     		movs	r2, #254
  55 0022 4FF40061 		mov	r1, #2048
  56 0026 FFF7FEFF 		bl	CyDmaTdSetConfiguration
  57              	.LVL2:
  70:source\bsw/dma.c ****     CyDmaTdSetAddress(DMA_ADC_MEM_TD[0], LO16((uint32)ADC_DelSig_DEC_SAMP_PTR), LO16((uint32)ADCBuf
  58              		.loc 1 70 0
  59 002a 294C     		ldr	r4, .L3+8
  60 002c A4B2     		uxth	r4, r4
  61 002e 2246     		mov	r2, r4
  62 0030 44F61061 		movw	r1, #19984
  63 0034 2878     		ldrb	r0, [r5]	@ zero_extendqisi2
  64 0036 FFF7FEFF 		bl	CyDmaTdSetAddress
  65              	.LVL3:
  71:source\bsw/dma.c ****     CyDmaChSetInitialTd(DMA_ADC_MEM_Chan, DMA_ADC_MEM_TD[0]);
  66              		.loc 1 71 0
  67 003a 2978     		ldrb	r1, [r5]	@ zero_extendqisi2
  68 003c 3078     		ldrb	r0, [r6]	@ zero_extendqisi2
  69 003e FFF7FEFF 		bl	CyDmaChSetInitialTd
  70              	.LVL4:
  72:source\bsw/dma.c **** 
  73:source\bsw/dma.c ****     /* DMA Configuration for DMA_MEM_UART */
  74:source\bsw/dma.c ****     DMA_MEM_UART_Chan = DMA_MEM_UART_DmaInitialize(
  71              		.loc 1 74 0
  72 0042 4FF48043 		mov	r3, #16384
  73 0046 41F6FF72 		movw	r2, #8191
  74 004a 0121     		movs	r1, #1
  75 004c 0220     		movs	r0, #2
  76 004e FFF7FEFF 		bl	DMA_MEM_UART_DmaInitialize
  77              	.LVL5:
  78 0052 204E     		ldr	r6, .L3+12
  79 0054 3070     		strb	r0, [r6]
  75:source\bsw/dma.c ****         DMA_MEM_UART_BYTES_PER_BURST, 
  76:source\bsw/dma.c ****         DMA_MEM_UART_REQUEST_PER_BURST, 
  77:source\bsw/dma.c ****         HI16(DMA_MEM_UART_SRC_BASE), 
  78:source\bsw/dma.c ****         HI16(DMA_MEM_UART_DST_BASE));
  79:source\bsw/dma.c ****     DMA_MEM_UART_TD[0] = CyDmaTdAllocate();
  80              		.loc 1 79 0
  81 0056 FFF7FEFF 		bl	CyDmaTdAllocate
  82              	.LVL6:
  83 005a 1F4D     		ldr	r5, .L3+16
  84 005c 2870     		strb	r0, [r5]
  80:source\bsw/dma.c ****     CyDmaTdSetConfiguration(DMA_MEM_UART_TD[0], 2048, CY_DMA_DISABLE_TD, DMA_MEM_UART__TD_TERMOUT_E
  85              		.loc 1 80 0
  86 005e 0523     		movs	r3, #5
  87 0060 FE22     		movs	r2, #254
  88 0062 4FF40061 		mov	r1, #2048
  89 0066 FFF7FEFF 		bl	CyDmaTdSetConfiguration
  90              	.LVL7:
  81:source\bsw/dma.c ****     CyDmaTdSetAddress(DMA_MEM_UART_TD[0], LO16((uint32)ADCBuffer), LO16((uint32)UART_LOG_TXDATA_PTR
ARM GAS  C:\Users\zakis\AppData\Local\Temp\ccBllY2f.s 			page 4


  91              		.loc 1 81 0
  92 006a 46F24B42 		movw	r2, #25675
  93 006e 2146     		mov	r1, r4
  94 0070 2878     		ldrb	r0, [r5]	@ zero_extendqisi2
  95 0072 FFF7FEFF 		bl	CyDmaTdSetAddress
  96              	.LVL8:
  82:source\bsw/dma.c ****     CyDmaChSetInitialTd(DMA_MEM_UART_Chan, DMA_MEM_UART_TD[0]);
  97              		.loc 1 82 0
  98 0076 2978     		ldrb	r1, [r5]	@ zero_extendqisi2
  99 0078 3078     		ldrb	r0, [r6]	@ zero_extendqisi2
 100 007a FFF7FEFF 		bl	CyDmaChSetInitialTd
 101              	.LVL9:
  83:source\bsw/dma.c ****     
  84:source\bsw/dma.c ****     
  85:source\bsw/dma.c ****     
  86:source\bsw/dma.c ****     /* DMA Configuration for DMA_FFT_UART */
  87:source\bsw/dma.c ****     DMA_FFT_UART_Chan = DMA_FFT_UART_DmaInitialize(
 102              		.loc 1 87 0
 103 007e 4FF48043 		mov	r3, #16384
 104 0082 41F6FF72 		movw	r2, #8191
 105 0086 0121     		movs	r1, #1
 106 0088 0420     		movs	r0, #4
 107 008a FFF7FEFF 		bl	DMA_FFT_UART_DmaInitialize
 108              	.LVL10:
 109 008e 134D     		ldr	r5, .L3+20
 110 0090 2870     		strb	r0, [r5]
  88:source\bsw/dma.c ****         DMA_FFT_UART_BYTES_PER_BURST, 
  89:source\bsw/dma.c ****         DMA_FFT_UART_REQUEST_PER_BURST, 
  90:source\bsw/dma.c ****         HI16(DMA_FFT_UART_SRC_BASE), 
  91:source\bsw/dma.c ****         HI16(DMA_FFT_UART_DST_BASE));
  92:source\bsw/dma.c ****     DMA_FFT_UART_TD[0] = CyDmaTdAllocate();
 111              		.loc 1 92 0
 112 0092 FFF7FEFF 		bl	CyDmaTdAllocate
 113              	.LVL11:
 114 0096 124C     		ldr	r4, .L3+24
 115 0098 2070     		strb	r0, [r4]
  93:source\bsw/dma.c ****     CyDmaTdSetConfiguration(DMA_FFT_UART_TD[0], 2048 * sizeof(int32), CY_DMA_DISABLE_TD, DMA_FFT_UA
 116              		.loc 1 93 0
 117 009a 0523     		movs	r3, #5
 118 009c FE22     		movs	r2, #254
 119 009e 4FF40051 		mov	r1, #8192
 120 00a2 FFF7FEFF 		bl	CyDmaTdSetConfiguration
 121              	.LVL12:
  94:source\bsw/dma.c ****     CyDmaTdSetAddress(DMA_FFT_UART_TD[0], LO16((uint32)fftBuffer), LO16((uint32)UART_LOG_TXDATA_PTR
 122              		.loc 1 94 0
 123 00a6 46F24B42 		movw	r2, #25675
 124 00aa 0E49     		ldr	r1, .L3+28
 125 00ac 89B2     		uxth	r1, r1
 126 00ae 2078     		ldrb	r0, [r4]	@ zero_extendqisi2
 127 00b0 FFF7FEFF 		bl	CyDmaTdSetAddress
 128              	.LVL13:
  95:source\bsw/dma.c ****     CyDmaChSetInitialTd(DMA_FFT_UART_Chan, DMA_FFT_UART_TD[0]);
 129              		.loc 1 95 0
 130 00b4 2178     		ldrb	r1, [r4]	@ zero_extendqisi2
 131 00b6 2878     		ldrb	r0, [r5]	@ zero_extendqisi2
 132 00b8 FFF7FEFF 		bl	CyDmaChSetInitialTd
 133              	.LVL14:
ARM GAS  C:\Users\zakis\AppData\Local\Temp\ccBllY2f.s 			page 5


  96:source\bsw/dma.c **** 
  97:source\bsw/dma.c ****     
  98:source\bsw/dma.c ****     
  99:source\bsw/dma.c ****     Clock_DMA_MEM_UART_Start();
 134              		.loc 1 99 0
 135 00bc FFF7FEFF 		bl	Clock_DMA_MEM_UART_Start
 136              	.LVL15:
 100:source\bsw/dma.c ****     Clock_DMA_FFT_UART_Start();
 137              		.loc 1 100 0
 138 00c0 FFF7FEFF 		bl	Clock_DMA_FFT_UART_Start
 139              	.LVL16:
 101:source\bsw/dma.c ****     return RC_SUCCESS;
 102:source\bsw/dma.c ****     
 103:source\bsw/dma.c ****     
 104:source\bsw/dma.c **** }
 140              		.loc 1 104 0
 141 00c4 0020     		movs	r0, #0
 142 00c6 70BD     		pop	{r4, r5, r6, pc}
 143              	.L4:
 144              		.align	2
 145              	.L3:
 146 00c8 00000000 		.word	DMA_ADC_MEM_Chan
 147 00cc 00000000 		.word	DMA_ADC_MEM_TD
 148 00d0 00000000 		.word	ADCBuffer
 149 00d4 00000000 		.word	DMA_MEM_UART_Chan
 150 00d8 00000000 		.word	DMA_MEM_UART_TD
 151 00dc 00000000 		.word	DMA_FFT_UART_Chan
 152 00e0 00000000 		.word	DMA_FFT_UART_TD
 153 00e4 00000000 		.word	fftBuffer
 154              		.cfi_endproc
 155              	.LFE166:
 156              		.size	DMA_Init, .-DMA_Init
 157              		.section	.text.DMA_Set,"ax",%progbits
 158              		.align	2
 159              		.global	DMA_Set
 160              		.thumb
 161              		.thumb_func
 162              		.type	DMA_Set, %function
 163              	DMA_Set:
 164              	.LFB167:
 105:source\bsw/dma.c **** 
 106:source\bsw/dma.c **** // SET DMA state
 107:source\bsw/dma.c **** RC_t DMA_Set(DMA_id_t dmaId, DMA_ONOFF_t dmaOnOff){
 165              		.loc 1 107 0
 166              		.cfi_startproc
 167              		@ args = 0, pretend = 0, frame = 0
 168              		@ frame_needed = 0, uses_anonymous_args = 0
 169              	.LVL17:
 170 0000 08B5     		push	{r3, lr}
 171              		.cfi_def_cfa_offset 8
 172              		.cfi_offset 3, -8
 173              		.cfi_offset 14, -4
 108:source\bsw/dma.c ****     switch (dmaId)
 174              		.loc 1 108 0
 175 0002 0128     		cmp	r0, #1
 176 0004 13D0     		beq	.L7
 177 0006 10B1     		cbz	r0, .L8
ARM GAS  C:\Users\zakis\AppData\Local\Temp\ccBllY2f.s 			page 6


 178 0008 0228     		cmp	r0, #2
 179 000a 20D0     		beq	.L9
 180 000c 2FE0     		b	.L17
 181              	.L8:
 109:source\bsw/dma.c ****     {
 110:source\bsw/dma.c ****         case DMA_ADC_TO_MEMORY : 
 111:source\bsw/dma.c ****             if (dmaOnOff == DMA_ON){
 182              		.loc 1 111 0
 183 000e 0129     		cmp	r1, #1
 184 0010 05D1     		bne	.L10
 112:source\bsw/dma.c ****                 CyDmaChEnable(DMA_ADC_MEM_Chan, 1);
 185              		.loc 1 112 0
 186 0012 1B4B     		ldr	r3, .L19
 187 0014 1878     		ldrb	r0, [r3]	@ zero_extendqisi2
 188              	.LVL18:
 189 0016 FFF7FEFF 		bl	CyDmaChEnable
 190              	.LVL19:
 113:source\bsw/dma.c ****             } else if (dmaOnOff == DMA_ON){
 114:source\bsw/dma.c ****                 CyDmaChDisable(DMA_ADC_MEM_Chan);
 115:source\bsw/dma.c ****             }
 116:source\bsw/dma.c ****             break;
 117:source\bsw/dma.c ****         
 118:source\bsw/dma.c ****         case DMA_MEMORY_TO_UART : 
 119:source\bsw/dma.c ****             if (dmaOnOff == DMA_ON){
 120:source\bsw/dma.c ****                 CyDmaChEnable(DMA_MEM_UART_Chan, 1);
 121:source\bsw/dma.c ****             } else if (dmaOnOff == DMA_ON){
 122:source\bsw/dma.c ****                 CyDmaChDisable(DMA_MEM_UART_Chan);
 123:source\bsw/dma.c ****             }
 124:source\bsw/dma.c ****             break;
 125:source\bsw/dma.c ****             
 126:source\bsw/dma.c ****         case DMA_FFT_TO_UART : 
 127:source\bsw/dma.c ****             if (dmaOnOff == DMA_ON){
 128:source\bsw/dma.c ****                 CyDmaChEnable(DMA_FFT_UART_Chan, 1);
 129:source\bsw/dma.c ****             } else if (dmaOnOff == DMA_ON){
 130:source\bsw/dma.c ****                 CyDmaChDisable(DMA_FFT_UART_Chan);
 131:source\bsw/dma.c ****             }
 132:source\bsw/dma.c ****             break;   
 133:source\bsw/dma.c **** 
 134:source\bsw/dma.c ****         default: return RC_ERROR_BAD_PARAM;
 135:source\bsw/dma.c ****     }
 136:source\bsw/dma.c ****     return RC_SUCCESS;
 191              		.loc 1 136 0
 192 001a 0020     		movs	r0, #0
 193 001c 08BD     		pop	{r3, pc}
 194              	.LVL20:
 195              	.L10:
 113:source\bsw/dma.c ****             } else if (dmaOnOff == DMA_ON){
 196              		.loc 1 113 0
 197 001e 0129     		cmp	r1, #1
 198 0020 28D1     		bne	.L14
 114:source\bsw/dma.c ****             }
 199              		.loc 1 114 0
 200 0022 174B     		ldr	r3, .L19
 201 0024 1878     		ldrb	r0, [r3]	@ zero_extendqisi2
 202              	.LVL21:
 203 0026 FFF7FEFF 		bl	CyDmaChDisable
 204              	.LVL22:
ARM GAS  C:\Users\zakis\AppData\Local\Temp\ccBllY2f.s 			page 7


 205              		.loc 1 136 0
 206 002a 0020     		movs	r0, #0
 207 002c 08BD     		pop	{r3, pc}
 208              	.LVL23:
 209              	.L7:
 119:source\bsw/dma.c ****                 CyDmaChEnable(DMA_MEM_UART_Chan, 1);
 210              		.loc 1 119 0
 211 002e 0129     		cmp	r1, #1
 212 0030 05D1     		bne	.L11
 120:source\bsw/dma.c ****             } else if (dmaOnOff == DMA_ON){
 213              		.loc 1 120 0
 214 0032 144B     		ldr	r3, .L19+4
 215 0034 1878     		ldrb	r0, [r3]	@ zero_extendqisi2
 216              	.LVL24:
 217 0036 FFF7FEFF 		bl	CyDmaChEnable
 218              	.LVL25:
 219              		.loc 1 136 0
 220 003a 0020     		movs	r0, #0
 221 003c 08BD     		pop	{r3, pc}
 222              	.LVL26:
 223              	.L11:
 121:source\bsw/dma.c ****                 CyDmaChDisable(DMA_MEM_UART_Chan);
 224              		.loc 1 121 0
 225 003e 0129     		cmp	r1, #1
 226 0040 1AD1     		bne	.L15
 122:source\bsw/dma.c ****             }
 227              		.loc 1 122 0
 228 0042 104B     		ldr	r3, .L19+4
 229 0044 1878     		ldrb	r0, [r3]	@ zero_extendqisi2
 230              	.LVL27:
 231 0046 FFF7FEFF 		bl	CyDmaChDisable
 232              	.LVL28:
 233              		.loc 1 136 0
 234 004a 0020     		movs	r0, #0
 235 004c 08BD     		pop	{r3, pc}
 236              	.LVL29:
 237              	.L9:
 127:source\bsw/dma.c ****                 CyDmaChEnable(DMA_FFT_UART_Chan, 1);
 238              		.loc 1 127 0
 239 004e 0129     		cmp	r1, #1
 240 0050 05D1     		bne	.L12
 128:source\bsw/dma.c ****             } else if (dmaOnOff == DMA_ON){
 241              		.loc 1 128 0
 242 0052 0D4B     		ldr	r3, .L19+8
 243 0054 1878     		ldrb	r0, [r3]	@ zero_extendqisi2
 244              	.LVL30:
 245 0056 FFF7FEFF 		bl	CyDmaChEnable
 246              	.LVL31:
 247              		.loc 1 136 0
 248 005a 0020     		movs	r0, #0
 249 005c 08BD     		pop	{r3, pc}
 250              	.LVL32:
 251              	.L12:
 129:source\bsw/dma.c ****                 CyDmaChDisable(DMA_FFT_UART_Chan);
 252              		.loc 1 129 0
 253 005e 0129     		cmp	r1, #1
 254 0060 0CD1     		bne	.L16
ARM GAS  C:\Users\zakis\AppData\Local\Temp\ccBllY2f.s 			page 8


 130:source\bsw/dma.c ****             }
 255              		.loc 1 130 0
 256 0062 094B     		ldr	r3, .L19+8
 257 0064 1878     		ldrb	r0, [r3]	@ zero_extendqisi2
 258              	.LVL33:
 259 0066 FFF7FEFF 		bl	CyDmaChDisable
 260              	.LVL34:
 261              		.loc 1 136 0
 262 006a 0020     		movs	r0, #0
 263 006c 08BD     		pop	{r3, pc}
 264              	.LVL35:
 265              	.L17:
 134:source\bsw/dma.c ****     }
 266              		.loc 1 134 0
 267 006e 6FF01300 		mvn	r0, #19
 268              	.LVL36:
 269 0072 08BD     		pop	{r3, pc}
 270              	.LVL37:
 271              	.L14:
 272              		.loc 1 136 0
 273 0074 0020     		movs	r0, #0
 274              	.LVL38:
 275 0076 08BD     		pop	{r3, pc}
 276              	.LVL39:
 277              	.L15:
 278 0078 0020     		movs	r0, #0
 279              	.LVL40:
 280 007a 08BD     		pop	{r3, pc}
 281              	.LVL41:
 282              	.L16:
 283 007c 0020     		movs	r0, #0
 284              	.LVL42:
 137:source\bsw/dma.c **** 
 138:source\bsw/dma.c **** }
 285              		.loc 1 138 0
 286 007e 08BD     		pop	{r3, pc}
 287              	.L20:
 288              		.align	2
 289              	.L19:
 290 0080 00000000 		.word	DMA_ADC_MEM_Chan
 291 0084 00000000 		.word	DMA_MEM_UART_Chan
 292 0088 00000000 		.word	DMA_FFT_UART_Chan
 293              		.cfi_endproc
 294              	.LFE167:
 295              		.size	DMA_Set, .-DMA_Set
 296              		.comm	fftBuffer,8192,4
 297              		.comm	ADCBuffer,2048,4
 298              		.comm	DMA_FFT_UART_TD,1,4
 299              		.comm	DMA_FFT_UART_Chan,1,1
 300              		.comm	DMA_MEM_UART_TD,1,4
 301              		.comm	DMA_MEM_UART_Chan,1,1
 302              		.comm	DMA_ADC_MEM_TD,1,4
 303              		.comm	DMA_ADC_MEM_Chan,1,1
 304              		.text
 305              	.Letext0:
 306              		.file 2 "c:\\program files (x86)\\cypress\\psoc creator\\4.4\\psoc creator\\import\\gnu\\arm\\5.4.
 307              		.file 3 "c:\\program files (x86)\\cypress\\psoc creator\\4.4\\psoc creator\\import\\gnu\\arm\\5.4.
ARM GAS  C:\Users\zakis\AppData\Local\Temp\ccBllY2f.s 			page 9


 308              		.file 4 "Generated_Source\\PSoC5/cytypes.h"
 309              		.file 5 "Generated_Source\\PSoC5/ErikaOS_common_ee_types.inc"
 310              		.file 6 "Generated_Source\\PSoC5/ErikaOS_cortex_mx_ee_cpu.inc"
 311              		.file 7 "source\\bsw\\global.h"
 312              		.file 8 "source\\bsw\\dma.h"
 313              		.file 9 "Generated_Source\\PSoC5/ErikaOS_ee_oo_intfunc.inc"
 314              		.file 10 "Generated_Source\\PSoC5/ErikaOS_cortex_mx_ee_context.inc"
 315              		.file 11 "Generated_Source\\PSoC5/ErikaOS_common_ee_primitives.inc"
 316              		.file 12 "Generated_Source\\PSoC5/core_cm3.h"
 317              		.file 13 "Generated_Source\\PSoC5/DMA_ADC_MEM_dma.h"
 318              		.file 14 "Generated_Source\\PSoC5/CYDMAC.H"
 319              		.file 15 "Generated_Source\\PSoC5/DMA_MEM_UART_dma.h"
 320              		.file 16 "Generated_Source\\PSoC5/DMA_FFT_UART_dma.h"
 321              		.file 17 "Generated_Source\\PSoC5/Clock_DMA_MEM_UART.h"
 322              		.file 18 "Generated_Source\\PSoC5/Clock_DMA_FFT_UART.h"