ARM GAS  C:\Users\zakis\AppData\Local\Temp\ccyki1rj.s 			page 1


   1              		.syntax unified
   2              		.cpu cortex-m3
   3              		.fpu softvfp
   4              		.eabi_attribute 20, 1
   5              		.eabi_attribute 21, 1
   6              		.eabi_attribute 23, 3
   7              		.eabi_attribute 24, 1
   8              		.eabi_attribute 25, 1
   9              		.eabi_attribute 26, 1
  10              		.eabi_attribute 30, 1
  11              		.eabi_attribute 34, 1
  12              		.eabi_attribute 18, 4
  13              		.thumb
  14              		.syntax unified
  15              		.file	"led.c"
  16              		.text
  17              	.Ltext0:
  18              		.cfi_sections	.debug_frame
  19              		.section	.text.LED_Set,"ax",%progbits
  20              		.align	2
  21              		.global	LED_Set
  22              		.thumb
  23              		.thumb_func
  24              		.type	LED_Set, %function
  25              	LED_Set:
  26              	.LFB111:
  27              		.file 1 "source\\bsw\\led.c"
   1:source\bsw/led.c **** /**
   2:source\bsw/led.c **** * \file <filename>
   3:source\bsw/led.c **** * \author <author-name>
   4:source\bsw/led.c **** * \date <date>
   5:source\bsw/led.c **** *
   6:source\bsw/led.c **** * \brief <Symbolic File name>
   7:source\bsw/led.c **** *
   8:source\bsw/led.c **** * \copyright Copyright ©2016
   9:source\bsw/led.c **** * Department of electrical engineering and information technology, Hochschule Darmstadt - Universit
  10:source\bsw/led.c **** * Permission to use, copy, modify, and distribute this software and its documentation for education
  11:source\bsw/led.c **** * (unless permitted by h_da) and official h_da projects, is hereby granted for enrolled students of
  12:source\bsw/led.c **** * this paragraph and the following paragraph appear in all copies, modifications, and distributions
  13:source\bsw/led.c **** * Contact Prof.Dr.-Ing. Peter Fromm, peter.fromm@h-da.de, Birkenweg 8 64295 Darmstadt - GERMANY for
  14:source\bsw/led.c **** *
  15:source\bsw/led.c **** * \warning This software is a PROTOTYPE version and is not designed or intended for use in producti
  16:source\bsw/led.c **** * The user represents and warrants that it will NOT use or redistribute the Software for such purpo
  17:source\bsw/led.c **** * This prototype is for research purposes only. This software is provided "AS IS," without a warran
  18:source\bsw/led.c **** */
  19:source\bsw/led.c **** 
  20:source\bsw/led.c **** /*****************************************************************************/
  21:source\bsw/led.c **** /* Include files                                                             */
  22:source\bsw/led.c **** /*****************************************************************************/
  23:source\bsw/led.c **** 
  24:source\bsw/led.c **** #include "project.h"
  25:source\bsw/led.c **** #include "led.h"
  26:source\bsw/led.c **** 
  27:source\bsw/led.c **** 
  28:source\bsw/led.c **** /*****************************************************************************/
  29:source\bsw/led.c **** /* Local pre-processor symbols/macros ('#define')                            */
  30:source\bsw/led.c **** /*****************************************************************************/
ARM GAS  C:\Users\zakis\AppData\Local\Temp\ccyki1rj.s 			page 2


  31:source\bsw/led.c **** 
  32:source\bsw/led.c **** /*****************************************************************************/
  33:source\bsw/led.c **** /* Global variable definitions (declared in header file with 'extern')       */
  34:source\bsw/led.c **** /*****************************************************************************/
  35:source\bsw/led.c **** 
  36:source\bsw/led.c **** /*****************************************************************************/
  37:source\bsw/led.c **** /* Local type definitions ('typedef')                                        */
  38:source\bsw/led.c **** /*****************************************************************************/
  39:source\bsw/led.c **** 
  40:source\bsw/led.c **** 
  41:source\bsw/led.c **** 
  42:source\bsw/led.c **** /*****************************************************************************/
  43:source\bsw/led.c **** /* Local variable definitions ('static')                                     */
  44:source\bsw/led.c **** /*****************************************************************************/
  45:source\bsw/led.c **** 
  46:source\bsw/led.c **** 
  47:source\bsw/led.c **** static LED_ONOFF_t LED__state[LED_ALL] = {LED_OFF, LED_OFF, LED_OFF}; /**< On/Off State of the LED,
  48:source\bsw/led.c **** 
  49:source\bsw/led.c **** 
  50:source\bsw/led.c **** /*****************************************************************************/
  51:source\bsw/led.c **** /* Local function prototypes ('static')                                      */
  52:source\bsw/led.c **** /*****************************************************************************/
  53:source\bsw/led.c **** 
  54:source\bsw/led.c **** /**
  55:source\bsw/led.c ****  * Inverts the parameter
  56:source\bsw/led.c ****  * @param LED_ONOFF_t ledOnOff - Value to be inverted
  57:source\bsw/led.c ****  * @return inverted parameter
  58:source\bsw/led.c ****  */
  59:source\bsw/led.c **** static inline LED_ONOFF_t LED__toggleValue(LED_ONOFF_t ledOnOff);
  60:source\bsw/led.c **** 
  61:source\bsw/led.c **** 
  62:source\bsw/led.c **** /*****************************************************************************/
  63:source\bsw/led.c **** /* Function implementation - global ('extern') and local ('static')          */
  64:source\bsw/led.c **** /*****************************************************************************/
  65:source\bsw/led.c **** 
  66:source\bsw/led.c **** /**
  67:source\bsw/led.c ****  * Initialises the LED's and turns them off
  68:source\bsw/led.c ****  * @return RC_SUCCESS if function was executed as exepected, other error code in case of error
  69:source\bsw/led.c ****  */
  70:source\bsw/led.c **** RC_t LED_Init()
  71:source\bsw/led.c **** {
  72:source\bsw/led.c ****     RC_t result = RC_SUCCESS;
  73:source\bsw/led.c ****     
  74:source\bsw/led.c ****     for (LED_id_t i = LED_RED; i < LED_ALL; i++)
  75:source\bsw/led.c ****     {
  76:source\bsw/led.c ****         LED__state[i] = OFF;
  77:source\bsw/led.c ****         
  78:source\bsw/led.c ****         RC_t clearResult;
  79:source\bsw/led.c ****         clearResult = LED_Set(i, LED_OFF);
  80:source\bsw/led.c ****         
  81:source\bsw/led.c ****         if (clearResult != RC_SUCCESS)
  82:source\bsw/led.c ****         {
  83:source\bsw/led.c ****             //memorize error
  84:source\bsw/led.c ****             result = clearResult;
  85:source\bsw/led.c ****         }
  86:source\bsw/led.c ****     }
  87:source\bsw/led.c **** 
ARM GAS  C:\Users\zakis\AppData\Local\Temp\ccyki1rj.s 			page 3


  88:source\bsw/led.c ****     
  89:source\bsw/led.c ****     return result;
  90:source\bsw/led.c **** }
  91:source\bsw/led.c **** 
  92:source\bsw/led.c **** /**
  93:source\bsw/led.c ****  * Sets the required LED
  94:source\bsw/led.c ****  * @param LED_t ledId - Identifier for the LED, ALL will change all LED's
  95:source\bsw/led.c ****  * @param LED_ONOFF_t ledOnOff - Trun the led on or off
  96:source\bsw/led.c ****  * @return RC_SUCCESS if function was executed as exepected, other error code in case of error
  97:source\bsw/led.c ****  */
  98:source\bsw/led.c **** RC_t LED_Set(LED_id_t ledId, LED_ONOFF_t ledOnOff)
  99:source\bsw/led.c **** {
  28              		.loc 1 99 0
  29              		.cfi_startproc
  30              		@ args = 0, pretend = 0, frame = 0
  31              		@ frame_needed = 0, uses_anonymous_args = 0
  32              	.LVL0:
  33 0000 38B5     		push	{r3, r4, r5, lr}
  34              		.cfi_def_cfa_offset 16
  35              		.cfi_offset 3, -16
  36              		.cfi_offset 4, -12
  37              		.cfi_offset 5, -8
  38              		.cfi_offset 14, -4
  39 0002 0446     		mov	r4, r0
  40 0004 0D46     		mov	r5, r1
 100:source\bsw/led.c ****     //set individual LED
 101:source\bsw/led.c ****     switch (ledId)
  41              		.loc 1 101 0
  42 0006 0328     		cmp	r0, #3
  43 0008 24D8     		bhi	.L9
  44 000a DFE800F0 		tbb	[pc, r0]
  45              	.L4:
  46 000e 02       		.byte	(.L3-.L4)/2
  47 000f 09       		.byte	(.L5-.L4)/2
  48 0010 10       		.byte	(.L6-.L4)/2
  49 0011 1E       		.byte	(.L10-.L4)/2
  50              		.p2align 1
  51              	.L3:
 102:source\bsw/led.c ****     {
 103:source\bsw/led.c ****         case LED_RED : 
 104:source\bsw/led.c ****             LED_red_Write(ledOnOff); 
  52              		.loc 1 104 0
  53 0012 0846     		mov	r0, r1
  54              	.LVL1:
  55 0014 FFF7FEFF 		bl	LED_red_Write
  56              	.LVL2:
 105:source\bsw/led.c ****             LED__state[ledId] = ledOnOff; 
  57              		.loc 1 105 0
  58 0018 104B     		ldr	r3, .L12
  59 001a 1D55     		strb	r5, [r3, r4]
 106:source\bsw/led.c ****             break;
 107:source\bsw/led.c ****         
 108:source\bsw/led.c ****         case LED_ORANGE : 
 109:source\bsw/led.c ****             LED_orange_Write(ledOnOff); 
 110:source\bsw/led.c ****             LED__state[ledId] = ledOnOff;
 111:source\bsw/led.c ****             break;
 112:source\bsw/led.c ****             
ARM GAS  C:\Users\zakis\AppData\Local\Temp\ccyki1rj.s 			page 4


 113:source\bsw/led.c ****         case LED_GREEN : 
 114:source\bsw/led.c ****             LED_green_Write(ledOnOff); 
 115:source\bsw/led.c ****             LED__state[ledId] = ledOnOff;
 116:source\bsw/led.c ****             break;
 117:source\bsw/led.c ****            
 118:source\bsw/led.c ****         case LED_ALL : 
 119:source\bsw/led.c ****             for (LED_id_t i = LED_RED; i < LED_ALL; i++)
 120:source\bsw/led.c ****             {
 121:source\bsw/led.c ****                 LED_Set(i, ledOnOff);
 122:source\bsw/led.c ****             }
 123:source\bsw/led.c ****             break;
 124:source\bsw/led.c ****         default: return RC_ERROR_BAD_PARAM;
 125:source\bsw/led.c ****     }
 126:source\bsw/led.c ****     
 127:source\bsw/led.c ****     return RC_SUCCESS;
  60              		.loc 1 127 0
  61 001c 0020     		movs	r0, #0
 106:source\bsw/led.c ****             break;
  62              		.loc 1 106 0
  63 001e 38BD     		pop	{r3, r4, r5, pc}
  64              	.LVL3:
  65              	.L5:
 109:source\bsw/led.c ****             LED__state[ledId] = ledOnOff;
  66              		.loc 1 109 0
  67 0020 0846     		mov	r0, r1
  68              	.LVL4:
  69 0022 FFF7FEFF 		bl	LED_orange_Write
  70              	.LVL5:
 110:source\bsw/led.c ****             break;
  71              		.loc 1 110 0
  72 0026 0D4B     		ldr	r3, .L12
  73 0028 1D55     		strb	r5, [r3, r4]
  74              		.loc 1 127 0
  75 002a 0020     		movs	r0, #0
 111:source\bsw/led.c ****             
  76              		.loc 1 111 0
  77 002c 38BD     		pop	{r3, r4, r5, pc}
  78              	.LVL6:
  79              	.L6:
 114:source\bsw/led.c ****             LED__state[ledId] = ledOnOff;
  80              		.loc 1 114 0
  81 002e 0846     		mov	r0, r1
  82              	.LVL7:
  83 0030 FFF7FEFF 		bl	LED_green_Write
  84              	.LVL8:
 115:source\bsw/led.c ****             break;
  85              		.loc 1 115 0
  86 0034 094B     		ldr	r3, .L12
  87 0036 1D55     		strb	r5, [r3, r4]
  88              		.loc 1 127 0
  89 0038 0020     		movs	r0, #0
 116:source\bsw/led.c ****            
  90              		.loc 1 116 0
  91 003a 38BD     		pop	{r3, r4, r5, pc}
  92              	.LVL9:
  93              	.L8:
  94              	.LBB9:
ARM GAS  C:\Users\zakis\AppData\Local\Temp\ccyki1rj.s 			page 5


 121:source\bsw/led.c ****             }
  95              		.loc 1 121 0 discriminator 3
  96 003c 2946     		mov	r1, r5
  97 003e 2046     		mov	r0, r4
  98 0040 FFF7FEFF 		bl	LED_Set
  99              	.LVL10:
 119:source\bsw/led.c ****             {
 100              		.loc 1 119 0 discriminator 3
 101 0044 0134     		adds	r4, r4, #1
 102              	.LVL11:
 103 0046 E4B2     		uxtb	r4, r4
 104              	.LVL12:
 105 0048 00E0     		b	.L7
 106              	.LVL13:
 107              	.L10:
 108              	.LBE9:
 101:source\bsw/led.c ****     {
 109              		.loc 1 101 0
 110 004a 0024     		movs	r4, #0
 111              	.LVL14:
 112              	.L7:
 113              	.LBB10:
 119:source\bsw/led.c ****             {
 114              		.loc 1 119 0 discriminator 1
 115 004c 022C     		cmp	r4, #2
 116 004e F5D9     		bls	.L8
 117              	.LBE10:
 118              		.loc 1 127 0
 119 0050 0020     		movs	r0, #0
 120              	.LBB11:
 121 0052 38BD     		pop	{r3, r4, r5, pc}
 122              	.LVL15:
 123              	.L9:
 124              	.LBE11:
 124:source\bsw/led.c ****     }
 125              		.loc 1 124 0
 126 0054 6FF01300 		mvn	r0, #19
 127              	.LVL16:
 128:source\bsw/led.c **** }
 128              		.loc 1 128 0
 129 0058 38BD     		pop	{r3, r4, r5, pc}
 130              	.L13:
 131 005a 00BF     		.align	2
 132              	.L12:
 133 005c 00000000 		.word	.LANCHOR0
 134              		.cfi_endproc
 135              	.LFE111:
 136              		.size	LED_Set, .-LED_Set
 137              		.section	.text.LED_Init,"ax",%progbits
 138              		.align	2
 139              		.global	LED_Init
 140              		.thumb
 141              		.thumb_func
 142              		.type	LED_Init, %function
 143              	LED_Init:
 144              	.LFB110:
  71:source\bsw/led.c ****     RC_t result = RC_SUCCESS;
ARM GAS  C:\Users\zakis\AppData\Local\Temp\ccyki1rj.s 			page 6


 145              		.loc 1 71 0
 146              		.cfi_startproc
 147              		@ args = 0, pretend = 0, frame = 0
 148              		@ frame_needed = 0, uses_anonymous_args = 0
 149 0000 38B5     		push	{r3, r4, r5, lr}
 150              		.cfi_def_cfa_offset 16
 151              		.cfi_offset 3, -16
 152              		.cfi_offset 4, -12
 153              		.cfi_offset 5, -8
 154              		.cfi_offset 14, -4
 155              	.LVL17:
 156              	.LBB12:
  74:source\bsw/led.c ****     {
 157              		.loc 1 74 0
 158 0002 0024     		movs	r4, #0
 159              	.LBE12:
  72:source\bsw/led.c ****     
 160              		.loc 1 72 0
 161 0004 2546     		mov	r5, r4
 162              	.LBB14:
  74:source\bsw/led.c ****     {
 163              		.loc 1 74 0
 164 0006 09E0     		b	.L15
 165              	.LVL18:
 166              	.L17:
 167              	.LBB13:
  76:source\bsw/led.c ****         
 168              		.loc 1 76 0
 169 0008 0021     		movs	r1, #0
 170 000a 064B     		ldr	r3, .L20
 171 000c 1955     		strb	r1, [r3, r4]
  79:source\bsw/led.c ****         
 172              		.loc 1 79 0
 173 000e 2046     		mov	r0, r4
 174 0010 FFF7FEFF 		bl	LED_Set
 175              	.LVL19:
  81:source\bsw/led.c ****         {
 176              		.loc 1 81 0
 177 0014 00B1     		cbz	r0, .L16
  84:source\bsw/led.c ****         }
 178              		.loc 1 84 0
 179 0016 0546     		mov	r5, r0
 180              	.LVL20:
 181              	.L16:
 182              	.LBE13:
  74:source\bsw/led.c ****     {
 183              		.loc 1 74 0 discriminator 2
 184 0018 0134     		adds	r4, r4, #1
 185              	.LVL21:
 186 001a E4B2     		uxtb	r4, r4
 187              	.LVL22:
 188              	.L15:
  74:source\bsw/led.c ****     {
 189              		.loc 1 74 0 is_stmt 0 discriminator 1
 190 001c 022C     		cmp	r4, #2
 191 001e F3D9     		bls	.L17
 192              	.LBE14:
ARM GAS  C:\Users\zakis\AppData\Local\Temp\ccyki1rj.s 			page 7


  90:source\bsw/led.c **** 
 193              		.loc 1 90 0 is_stmt 1
 194 0020 2846     		mov	r0, r5
 195 0022 38BD     		pop	{r3, r4, r5, pc}
 196              	.LVL23:
 197              	.L21:
 198              		.align	2
 199              	.L20:
 200 0024 00000000 		.word	.LANCHOR0
 201              		.cfi_endproc
 202              	.LFE110:
 203              		.size	LED_Init, .-LED_Init
 204              		.section	.text.LED_Toggle,"ax",%progbits
 205              		.align	2
 206              		.global	LED_Toggle
 207              		.thumb
 208              		.thumb_func
 209              		.type	LED_Toggle, %function
 210              	LED_Toggle:
 211              	.LFB112:
 129:source\bsw/led.c **** 
 130:source\bsw/led.c **** 
 131:source\bsw/led.c **** 
 132:source\bsw/led.c **** /**
 133:source\bsw/led.c ****  * Toggle the required LED
 134:source\bsw/led.c ****  * @param LED_t ledId - Identifier for the LED, ALL will change all LED's
 135:source\bsw/led.c ****  * @return RC_SUCCESS if function was executed as exepected, other error code in case of error
 136:source\bsw/led.c ****  */
 137:source\bsw/led.c **** RC_t LED_Toggle(LED_id_t ledId)
 138:source\bsw/led.c **** {
 212              		.loc 1 138 0
 213              		.cfi_startproc
 214              		@ args = 0, pretend = 0, frame = 0
 215              		@ frame_needed = 0, uses_anonymous_args = 0
 216              	.LVL24:
 217 0000 10B5     		push	{r4, lr}
 218              		.cfi_def_cfa_offset 8
 219              		.cfi_offset 4, -8
 220              		.cfi_offset 14, -4
 139:source\bsw/led.c ****     //set individual LED
 140:source\bsw/led.c ****     switch (ledId)
 221              		.loc 1 140 0
 222 0002 0328     		cmp	r0, #3
 223 0004 38D8     		bhi	.L33
 224 0006 DFE800F0 		tbb	[pc, r0]
 225              	.L25:
 226 000a 02       		.byte	(.L24-.L25)/2
 227 000b 10       		.byte	(.L26-.L25)/2
 228 000c 1E       		.byte	(.L27-.L25)/2
 229 000d 32       		.byte	(.L34-.L25)/2
 230              		.p2align 1
 231              	.L24:
 141:source\bsw/led.c ****     {
 142:source\bsw/led.c ****         case LED_RED : 
 143:source\bsw/led.c ****             LED__state[ledId] = LED__toggleValue(LED__state[ledId]); 
 232              		.loc 1 143 0
 233 000e 1C4B     		ldr	r3, .L39
ARM GAS  C:\Users\zakis\AppData\Local\Temp\ccyki1rj.s 			page 8


 234 0010 1B5C     		ldrb	r3, [r3, r0]	@ zero_extendqisi2
 235              	.LVL25:
 236              	.LBB15:
 237              	.LBB16:
 144:source\bsw/led.c ****             LED_red_Write(LED__state[ledId]);
 145:source\bsw/led.c ****             break;
 146:source\bsw/led.c ****         
 147:source\bsw/led.c ****         case LED_ORANGE : 
 148:source\bsw/led.c ****             LED__state[ledId] = LED__toggleValue(LED__state[ledId]); 
 149:source\bsw/led.c ****             LED_orange_Write(LED__state[ledId]);
 150:source\bsw/led.c ****             break;
 151:source\bsw/led.c ****             
 152:source\bsw/led.c ****         case LED_GREEN : 
 153:source\bsw/led.c ****             LED__state[ledId] = LED__toggleValue(LED__state[ledId]); 
 154:source\bsw/led.c ****             LED_green_Write(LED__state[ledId]);
 155:source\bsw/led.c ****             break;
 156:source\bsw/led.c ****            
 157:source\bsw/led.c ****         case LED_ALL : 
 158:source\bsw/led.c ****             for (LED_id_t i = LED_RED; i < LED_ALL; i++)
 159:source\bsw/led.c ****             {
 160:source\bsw/led.c ****                 LED_Toggle(i);
 161:source\bsw/led.c ****             }
 162:source\bsw/led.c ****             break;
 163:source\bsw/led.c ****         default: return RC_ERROR_BAD_PARAM;
 164:source\bsw/led.c ****     }
 165:source\bsw/led.c ****     
 166:source\bsw/led.c ****     return RC_SUCCESS;
 167:source\bsw/led.c **** }
 168:source\bsw/led.c **** 
 169:source\bsw/led.c **** 
 170:source\bsw/led.c **** /**
 171:source\bsw/led.c ****  * Inverts the parameter
 172:source\bsw/led.c ****  * @param LED_ONOFF_t ledOnOff - Value to be inverted
 173:source\bsw/led.c ****  * @return inverted parameter
 174:source\bsw/led.c ****  */
 175:source\bsw/led.c **** static inline LED_ONOFF_t LED__toggleValue(LED_ONOFF_t ledOnOff)
 176:source\bsw/led.c **** {
 177:source\bsw/led.c ****     if (ledOnOff == LED_ON) 
 238              		.loc 1 177 0
 239 0012 012B     		cmp	r3, #1
 240 0014 01D1     		bne	.L35
 178:source\bsw/led.c ****     {
 179:source\bsw/led.c ****         return LED_OFF;
 241              		.loc 1 179 0
 242 0016 0023     		movs	r3, #0
 243              	.LVL26:
 244 0018 00E0     		b	.L29
 245              	.LVL27:
 246              	.L35:
 180:source\bsw/led.c ****     }
 181:source\bsw/led.c ****     else
 182:source\bsw/led.c ****     {
 183:source\bsw/led.c ****         return LED_ON;
 247              		.loc 1 183 0
 248 001a 0123     		movs	r3, #1
 249              	.LVL28:
 250              	.L29:
ARM GAS  C:\Users\zakis\AppData\Local\Temp\ccyki1rj.s 			page 9


 251              	.LBE16:
 252              	.LBE15:
 143:source\bsw/led.c ****             LED_red_Write(LED__state[ledId]);
 253              		.loc 1 143 0
 254 001c 184A     		ldr	r2, .L39
 255 001e 1354     		strb	r3, [r2, r0]
 144:source\bsw/led.c ****             break;
 256              		.loc 1 144 0
 257 0020 1846     		mov	r0, r3
 258              	.LVL29:
 259 0022 FFF7FEFF 		bl	LED_red_Write
 260              	.LVL30:
 166:source\bsw/led.c **** }
 261              		.loc 1 166 0
 262 0026 0020     		movs	r0, #0
 145:source\bsw/led.c ****         
 263              		.loc 1 145 0
 264 0028 10BD     		pop	{r4, pc}
 265              	.LVL31:
 266              	.L26:
 148:source\bsw/led.c ****             LED_orange_Write(LED__state[ledId]);
 267              		.loc 1 148 0
 268 002a 154B     		ldr	r3, .L39
 269 002c 1B5C     		ldrb	r3, [r3, r0]	@ zero_extendqisi2
 270              	.LVL32:
 271              	.LBB17:
 272              	.LBB18:
 177:source\bsw/led.c ****     {
 273              		.loc 1 177 0
 274 002e 012B     		cmp	r3, #1
 275 0030 01D1     		bne	.L36
 179:source\bsw/led.c ****     }
 276              		.loc 1 179 0
 277 0032 0023     		movs	r3, #0
 278              	.LVL33:
 279 0034 00E0     		b	.L30
 280              	.LVL34:
 281              	.L36:
 282              		.loc 1 183 0
 283 0036 0123     		movs	r3, #1
 284              	.LVL35:
 285              	.L30:
 286              	.LBE18:
 287              	.LBE17:
 148:source\bsw/led.c ****             LED_orange_Write(LED__state[ledId]);
 288              		.loc 1 148 0
 289 0038 114A     		ldr	r2, .L39
 290 003a 1354     		strb	r3, [r2, r0]
 149:source\bsw/led.c ****             break;
 291              		.loc 1 149 0
 292 003c 1846     		mov	r0, r3
 293              	.LVL36:
 294 003e FFF7FEFF 		bl	LED_orange_Write
 295              	.LVL37:
 166:source\bsw/led.c **** }
 296              		.loc 1 166 0
 297 0042 0020     		movs	r0, #0
ARM GAS  C:\Users\zakis\AppData\Local\Temp\ccyki1rj.s 			page 10


 150:source\bsw/led.c ****             
 298              		.loc 1 150 0
 299 0044 10BD     		pop	{r4, pc}
 300              	.LVL38:
 301              	.L27:
 153:source\bsw/led.c ****             LED_green_Write(LED__state[ledId]);
 302              		.loc 1 153 0
 303 0046 0E4B     		ldr	r3, .L39
 304 0048 1B5C     		ldrb	r3, [r3, r0]	@ zero_extendqisi2
 305              	.LVL39:
 306              	.LBB19:
 307              	.LBB20:
 177:source\bsw/led.c ****     {
 308              		.loc 1 177 0
 309 004a 012B     		cmp	r3, #1
 310 004c 01D1     		bne	.L37
 179:source\bsw/led.c ****     }
 311              		.loc 1 179 0
 312 004e 0023     		movs	r3, #0
 313              	.LVL40:
 314 0050 00E0     		b	.L31
 315              	.LVL41:
 316              	.L37:
 317              		.loc 1 183 0
 318 0052 0123     		movs	r3, #1
 319              	.LVL42:
 320              	.L31:
 321              	.LBE20:
 322              	.LBE19:
 153:source\bsw/led.c ****             LED_green_Write(LED__state[ledId]);
 323              		.loc 1 153 0
 324 0054 0A4A     		ldr	r2, .L39
 325 0056 1354     		strb	r3, [r2, r0]
 154:source\bsw/led.c ****             break;
 326              		.loc 1 154 0
 327 0058 1846     		mov	r0, r3
 328              	.LVL43:
 329 005a FFF7FEFF 		bl	LED_green_Write
 330              	.LVL44:
 166:source\bsw/led.c **** }
 331              		.loc 1 166 0
 332 005e 0020     		movs	r0, #0
 155:source\bsw/led.c ****            
 333              		.loc 1 155 0
 334 0060 10BD     		pop	{r4, pc}
 335              	.LVL45:
 336              	.L32:
 337              	.LBB21:
 160:source\bsw/led.c ****             }
 338              		.loc 1 160 0 discriminator 3
 339 0062 2046     		mov	r0, r4
 340 0064 FFF7FEFF 		bl	LED_Toggle
 341              	.LVL46:
 158:source\bsw/led.c ****             {
 342              		.loc 1 158 0 discriminator 3
 343 0068 0134     		adds	r4, r4, #1
 344              	.LVL47:
ARM GAS  C:\Users\zakis\AppData\Local\Temp\ccyki1rj.s 			page 11


 345 006a E4B2     		uxtb	r4, r4
 346              	.LVL48:
 347 006c 00E0     		b	.L28
 348              	.LVL49:
 349              	.L34:
 350              	.LBE21:
 140:source\bsw/led.c ****     {
 351              		.loc 1 140 0
 352 006e 0024     		movs	r4, #0
 353              	.LVL50:
 354              	.L28:
 355              	.LBB22:
 158:source\bsw/led.c ****             {
 356              		.loc 1 158 0 discriminator 1
 357 0070 022C     		cmp	r4, #2
 358 0072 F6D9     		bls	.L32
 359              	.LBE22:
 166:source\bsw/led.c **** }
 360              		.loc 1 166 0
 361 0074 0020     		movs	r0, #0
 362              	.LBB23:
 363 0076 10BD     		pop	{r4, pc}
 364              	.LVL51:
 365              	.L33:
 366              	.LBE23:
 163:source\bsw/led.c ****     }
 367              		.loc 1 163 0
 368 0078 6FF01300 		mvn	r0, #19
 369              	.LVL52:
 167:source\bsw/led.c **** 
 370              		.loc 1 167 0
 371 007c 10BD     		pop	{r4, pc}
 372              	.L40:
 373 007e 00BF     		.align	2
 374              	.L39:
 375 0080 00000000 		.word	.LANCHOR0
 376              		.cfi_endproc
 377              	.LFE112:
 378              		.size	LED_Toggle, .-LED_Toggle
 379              		.bss
 380              		.align	2
 381              		.set	.LANCHOR0,. + 0
 382              		.type	LED__state, %object
 383              		.size	LED__state, 3
 384              	LED__state:
 385 0000 000000   		.space	3
 386              		.text
 387              	.Letext0:
 388              		.file 2 "c:\\program files (x86)\\cypress\\psoc creator\\4.4\\psoc creator\\import\\gnu\\arm\\5.4.
 389              		.file 3 "c:\\program files (x86)\\cypress\\psoc creator\\4.4\\psoc creator\\import\\gnu\\arm\\5.4.
 390              		.file 4 "Generated_Source\\PSoC5/ErikaOS_common_ee_types.inc"
 391              		.file 5 "Generated_Source\\PSoC5/ErikaOS_cortex_mx_ee_cpu.inc"
 392              		.file 6 "source\\bsw\\global.h"
 393              		.file 7 "source\\bsw\\led.h"
 394              		.file 8 "Generated_Source\\PSoC5/ErikaOS_ee_oo_intfunc.inc"
 395              		.file 9 "Generated_Source\\PSoC5/ErikaOS_cortex_mx_ee_context.inc"
 396              		.file 10 "Generated_Source\\PSoC5/ErikaOS_common_ee_primitives.inc"
ARM GAS  C:\Users\zakis\AppData\Local\Temp\ccyki1rj.s 			page 12


 397              		.file 11 "Generated_Source\\PSoC5/core_cm3.h"
 398              		.file 12 "Generated_Source\\PSoC5/LED_red.h"
 399              		.file 13 "Generated_Source\\PSoC5/LED_orange.h"
 400              		.file 14 "Generated_Source\\PSoC5/LED_green.h"