ARM GAS  C:\Users\zakis\AppData\Local\Temp\ccd2W9SZ.s 			page 1


   1              		.syntax unified
   2              		.cpu cortex-m3
   3              		.fpu softvfp
   4              		.eabi_attribute 20, 1
   5              		.eabi_attribute 21, 1
   6              		.eabi_attribute 23, 3
   7              		.eabi_attribute 24, 1
   8              		.eabi_attribute 25, 1
   9              		.eabi_attribute 26, 1
  10              		.eabi_attribute 30, 1
  11              		.eabi_attribute 34, 1
  12              		.eabi_attribute 18, 4
  13              		.thumb
  14              		.syntax unified
  15              		.file	"main.c"
  16              		.text
  17              	.Ltext0:
  18              		.cfi_sections	.debug_frame
  19              		.section	.text.ISR2_systick_handler,"ax",%progbits
  20              		.align	2
  21              		.global	ISR2_systick_handler
  22              		.thumb
  23              		.thumb_func
  24              		.type	ISR2_systick_handler, %function
  25              	ISR2_systick_handler:
  26              	.LFB168:
  27              		.file 1 "source\\asw\\main.c"
   1:source\asw/main.c **** /* ========================================
   2:source\asw/main.c ****  *
   3:source\asw/main.c ****  * Copyright YOUR COMPANY, THE YEAR
   4:source\asw/main.c ****  * All Rights Reserved
   5:source\asw/main.c ****  * UNPUBLISHED, LICENSED SOFTWARE.
   6:source\asw/main.c ****  *
   7:source\asw/main.c ****  * CONFIDENTIAL AND PROPRIETARY INFORMATION
   8:source\asw/main.c ****  * WHICH IS THE PROPERTY OF your company.
   9:source\asw/main.c ****  *
  10:source\asw/main.c ****  * ========================================
  11:source\asw/main.c **** */
  12:source\asw/main.c **** #include "project.h"
  13:source\asw/main.c **** #include "global.h"
  14:source\asw/main.c **** #include "detector.h"
  15:source\asw/main.c **** #include "fft_application.h"
  16:source\asw/main.c **** #include "cfar.h"
  17:source\asw/main.c **** 
  18:source\asw/main.c **** #define UART_START_VARIABLE 's'
  19:source\asw/main.c **** #define UART_FINISH_VARIABLE 'o'
  20:source\asw/main.c **** #define UART_TARGET_VARIABLE 't'
  21:source\asw/main.c **** #define UART_NO_TARGET_VARIABLE 'n'
  22:source\asw/main.c **** 
  23:source\asw/main.c **** //#define NO_OF_SAMPLES 1024
  24:source\asw/main.c **** 
  25:source\asw/main.c **** Detector_t movementDetector;
  26:source\asw/main.c **** 
  27:source\asw/main.c **** 
  28:source\asw/main.c **** 
  29:source\asw/main.c **** //ISR which will increment the systick counter every ms
  30:source\asw/main.c **** ISR(systick_handler)
ARM GAS  C:\Users\zakis\AppData\Local\Temp\ccd2W9SZ.s 			page 2


  31:source\asw/main.c **** {
  28              		.loc 1 31 0
  29              		.cfi_startproc
  30              		@ args = 0, pretend = 0, frame = 0
  31              		@ frame_needed = 0, uses_anonymous_args = 0
  32 0000 08B5     		push	{r3, lr}
  33              		.cfi_def_cfa_offset 8
  34              		.cfi_offset 3, -8
  35              		.cfi_offset 14, -4
  32:source\asw/main.c ****     CounterTick(cnt_systick);
  36              		.loc 1 32 0
  37 0002 0020     		movs	r0, #0
  38 0004 FFF7FEFF 		bl	EE_oo_IncrementCounter
  39              	.LVL0:
  40 0008 08BD     		pop	{r3, pc}
  41              		.cfi_endproc
  42              	.LFE168:
  43              		.size	ISR2_systick_handler, .-ISR2_systick_handler
  44 000a 00BF     		.section	.text.systick_handler,"ax",%progbits
  45              		.align	2
  46              		.global	systick_handler
  47              		.thumb
  48              		.thumb_func
  49              		.type	systick_handler, %function
  50              	systick_handler:
  51              	.LFB167:
  30:source\asw/main.c **** {
  52              		.loc 1 30 0
  53              		.cfi_startproc
  54              		@ Stack Align: May be called with mis-aligned SP.
  55              		@ args = 0, pretend = 0, frame = 0
  56              		@ frame_needed = 0, uses_anonymous_args = 0
  57 0000 6846     		mov	r0, sp
  58              		.cfi_register 13, 0
  59 0002 20F00701 		bic	r1, r0, #7
  60 0006 8D46     		mov	sp, r1
  61 0008 19B5     		push	{r0, r3, r4, lr}
  62              		.cfi_def_cfa_offset 16
  63              		.cfi_offset 13, -16
  64              		.cfi_offset 3, -12
  65              		.cfi_offset 4, -8
  66              		.cfi_offset 14, -4
  67              	.LVL1:
  68              	.LBB176:
  69              	.LBB177:
  70              		.file 2 "Generated_Source\\PSoC5/ErikaOS_cortex_mx_ee_cpu.inc"
   1:Generated_Source\PSoC5/ErikaOS_cortex_mx_ee_cpu.inc **** /* ###*B*###
   2:Generated_Source\PSoC5/ErikaOS_cortex_mx_ee_cpu.inc ****  * ERIKA Enterprise - a tiny RTOS for small microcontrollers
   3:Generated_Source\PSoC5/ErikaOS_cortex_mx_ee_cpu.inc ****  *
   4:Generated_Source\PSoC5/ErikaOS_cortex_mx_ee_cpu.inc ****  * Copyright (C) 2002-2011  Evidence Srl
   5:Generated_Source\PSoC5/ErikaOS_cortex_mx_ee_cpu.inc ****  *
   6:Generated_Source\PSoC5/ErikaOS_cortex_mx_ee_cpu.inc ****  * This file is part of ERIKA Enterprise.
   7:Generated_Source\PSoC5/ErikaOS_cortex_mx_ee_cpu.inc ****  *
   8:Generated_Source\PSoC5/ErikaOS_cortex_mx_ee_cpu.inc ****  * ERIKA Enterprise is free software; you can redistribute it
   9:Generated_Source\PSoC5/ErikaOS_cortex_mx_ee_cpu.inc ****  * and/or modify it under the terms of the GNU General Public License
  10:Generated_Source\PSoC5/ErikaOS_cortex_mx_ee_cpu.inc ****  * version 2 as published by the Free Software Foundation, 
  11:Generated_Source\PSoC5/ErikaOS_cortex_mx_ee_cpu.inc ****  * (with a special exception described below).
ARM GAS  C:\Users\zakis\AppData\Local\Temp\ccd2W9SZ.s 			page 3


  12:Generated_Source\PSoC5/ErikaOS_cortex_mx_ee_cpu.inc ****  *
  13:Generated_Source\PSoC5/ErikaOS_cortex_mx_ee_cpu.inc ****  * Linking this code statically or dynamically with other modules is
  14:Generated_Source\PSoC5/ErikaOS_cortex_mx_ee_cpu.inc ****  * making a combined work based on this code.  Thus, the terms and
  15:Generated_Source\PSoC5/ErikaOS_cortex_mx_ee_cpu.inc ****  * conditions of the GNU General Public License cover the whole
  16:Generated_Source\PSoC5/ErikaOS_cortex_mx_ee_cpu.inc ****  * combination.
  17:Generated_Source\PSoC5/ErikaOS_cortex_mx_ee_cpu.inc ****  *
  18:Generated_Source\PSoC5/ErikaOS_cortex_mx_ee_cpu.inc ****  * As a special exception, the copyright holders of this library give you
  19:Generated_Source\PSoC5/ErikaOS_cortex_mx_ee_cpu.inc ****  * permission to link this code with independent modules to produce an
  20:Generated_Source\PSoC5/ErikaOS_cortex_mx_ee_cpu.inc ****  * executable, regardless of the license terms of these independent
  21:Generated_Source\PSoC5/ErikaOS_cortex_mx_ee_cpu.inc ****  * modules, and to copy and distribute the resulting executable under
  22:Generated_Source\PSoC5/ErikaOS_cortex_mx_ee_cpu.inc ****  * terms of your choice, provided that you also meet, for each linked
  23:Generated_Source\PSoC5/ErikaOS_cortex_mx_ee_cpu.inc ****  * independent module, the terms and conditions of the license of that
  24:Generated_Source\PSoC5/ErikaOS_cortex_mx_ee_cpu.inc ****  * module.  An independent module is a module which is not derived from
  25:Generated_Source\PSoC5/ErikaOS_cortex_mx_ee_cpu.inc ****  * or based on this library.  If you modify this code, you may extend
  26:Generated_Source\PSoC5/ErikaOS_cortex_mx_ee_cpu.inc ****  * this exception to your version of the code, but you are not
  27:Generated_Source\PSoC5/ErikaOS_cortex_mx_ee_cpu.inc ****  * obligated to do so.  If you do not wish to do so, delete this
  28:Generated_Source\PSoC5/ErikaOS_cortex_mx_ee_cpu.inc ****  * exception statement from your version.
  29:Generated_Source\PSoC5/ErikaOS_cortex_mx_ee_cpu.inc ****  *
  30:Generated_Source\PSoC5/ErikaOS_cortex_mx_ee_cpu.inc ****  * ERIKA Enterprise is distributed in the hope that it will be
  31:Generated_Source\PSoC5/ErikaOS_cortex_mx_ee_cpu.inc ****  * useful, but WITHOUT ANY WARRANTY; without even the implied warranty
  32:Generated_Source\PSoC5/ErikaOS_cortex_mx_ee_cpu.inc ****  * of MERCHANTABILITY or FITNESS FOR A PARTICULAR PURPOSE.  See the
  33:Generated_Source\PSoC5/ErikaOS_cortex_mx_ee_cpu.inc ****  * GNU General Public License version 2 for more details.
  34:Generated_Source\PSoC5/ErikaOS_cortex_mx_ee_cpu.inc ****  *
  35:Generated_Source\PSoC5/ErikaOS_cortex_mx_ee_cpu.inc ****  * You should have received a copy of the GNU General Public License
  36:Generated_Source\PSoC5/ErikaOS_cortex_mx_ee_cpu.inc ****  * version 2 along with ERIKA Enterprise; if not, write to the
  37:Generated_Source\PSoC5/ErikaOS_cortex_mx_ee_cpu.inc ****  * Free Software Foundation, Inc., 51 Franklin Street, Fifth Floor,
  38:Generated_Source\PSoC5/ErikaOS_cortex_mx_ee_cpu.inc ****  * Boston, MA 02110-1301 USA.
  39:Generated_Source\PSoC5/ErikaOS_cortex_mx_ee_cpu.inc ****  * ###*E*### */
  40:Generated_Source\PSoC5/ErikaOS_cortex_mx_ee_cpu.inc **** 
  41:Generated_Source\PSoC5/ErikaOS_cortex_mx_ee_cpu.inc **** /** 
  42:Generated_Source\PSoC5/ErikaOS_cortex_mx_ee_cpu.inc **** 	@file ee_cpu.h
  43:Generated_Source\PSoC5/ErikaOS_cortex_mx_ee_cpu.inc **** 	@brief CPU-dependent part of HAL. Derived from pkg/cpu/pic30/inc/ee_cpu.h
  44:Generated_Source\PSoC5/ErikaOS_cortex_mx_ee_cpu.inc **** 	@author Gianluca Franchino
  45:Generated_Source\PSoC5/ErikaOS_cortex_mx_ee_cpu.inc **** 	@author Giuseppe Serano
  46:Generated_Source\PSoC5/ErikaOS_cortex_mx_ee_cpu.inc **** 	@date 2011
  47:Generated_Source\PSoC5/ErikaOS_cortex_mx_ee_cpu.inc **** */ 
  48:Generated_Source\PSoC5/ErikaOS_cortex_mx_ee_cpu.inc ****     
  49:Generated_Source\PSoC5/ErikaOS_cortex_mx_ee_cpu.inc **** /*
  50:Generated_Source\PSoC5/ErikaOS_cortex_mx_ee_cpu.inc ****  * PSoC Port and API Generation
  51:Generated_Source\PSoC5/ErikaOS_cortex_mx_ee_cpu.inc ****  * Carlos Fernando Meier Martinez
  52:Generated_Source\PSoC5/ErikaOS_cortex_mx_ee_cpu.inc ****  * Hochschule Darmstadt, Germany. 2017.
  53:Generated_Source\PSoC5/ErikaOS_cortex_mx_ee_cpu.inc ****  */
  54:Generated_Source\PSoC5/ErikaOS_cortex_mx_ee_cpu.inc **** 
  55:Generated_Source\PSoC5/ErikaOS_cortex_mx_ee_cpu.inc **** #ifndef __INCLUDE_CORTEX_MX_EE_CPU_H__
  56:Generated_Source\PSoC5/ErikaOS_cortex_mx_ee_cpu.inc **** #define __INCLUDE_CORTEX_MX_EE_CPU_H__
  57:Generated_Source\PSoC5/ErikaOS_cortex_mx_ee_cpu.inc **** 
  58:Generated_Source\PSoC5/ErikaOS_cortex_mx_ee_cpu.inc **** #include "ErikaOS_eecfg.inc"
  59:Generated_Source\PSoC5/ErikaOS_cortex_mx_ee_cpu.inc **** 
  60:Generated_Source\PSoC5/ErikaOS_cortex_mx_ee_cpu.inc **** 
  61:Generated_Source\PSoC5/ErikaOS_cortex_mx_ee_cpu.inc **** #ifdef __GNU__
  62:Generated_Source\PSoC5/ErikaOS_cortex_mx_ee_cpu.inc **** #include "ErikaOS_common_ee_compiler_gcc.inc"
  63:Generated_Source\PSoC5/ErikaOS_cortex_mx_ee_cpu.inc **** #endif
  64:Generated_Source\PSoC5/ErikaOS_cortex_mx_ee_cpu.inc **** 
  65:Generated_Source\PSoC5/ErikaOS_cortex_mx_ee_cpu.inc **** /* Initial stack offset (in words): Used in multistack. */
  66:Generated_Source\PSoC5/ErikaOS_cortex_mx_ee_cpu.inc **** #ifndef CORTEX_MX_INIT_TOS_OFFSET
  67:Generated_Source\PSoC5/ErikaOS_cortex_mx_ee_cpu.inc **** #define CORTEX_MX_INIT_TOS_OFFSET 10
  68:Generated_Source\PSoC5/ErikaOS_cortex_mx_ee_cpu.inc **** #endif
ARM GAS  C:\Users\zakis\AppData\Local\Temp\ccd2W9SZ.s 			page 4


  69:Generated_Source\PSoC5/ErikaOS_cortex_mx_ee_cpu.inc **** 
  70:Generated_Source\PSoC5/ErikaOS_cortex_mx_ee_cpu.inc **** /*************************************************************************
  71:Generated_Source\PSoC5/ErikaOS_cortex_mx_ee_cpu.inc ****  HAL Types and structures
  72:Generated_Source\PSoC5/ErikaOS_cortex_mx_ee_cpu.inc ****  *************************************************************************/
  73:Generated_Source\PSoC5/ErikaOS_cortex_mx_ee_cpu.inc **** 
  74:Generated_Source\PSoC5/ErikaOS_cortex_mx_ee_cpu.inc **** /* Primitive data types */
  75:Generated_Source\PSoC5/ErikaOS_cortex_mx_ee_cpu.inc **** #include "ErikaOS_common_ee_types.inc"
  76:Generated_Source\PSoC5/ErikaOS_cortex_mx_ee_cpu.inc **** 
  77:Generated_Source\PSoC5/ErikaOS_cortex_mx_ee_cpu.inc **** typedef EE_UINT32 EE_UREG;
  78:Generated_Source\PSoC5/ErikaOS_cortex_mx_ee_cpu.inc **** typedef EE_INT32  EE_SREG;
  79:Generated_Source\PSoC5/ErikaOS_cortex_mx_ee_cpu.inc **** typedef EE_UINT32 EE_FREG;
  80:Generated_Source\PSoC5/ErikaOS_cortex_mx_ee_cpu.inc **** #define EE_UREG_SIZE 4
  81:Generated_Source\PSoC5/ErikaOS_cortex_mx_ee_cpu.inc **** 
  82:Generated_Source\PSoC5/ErikaOS_cortex_mx_ee_cpu.inc **** /* boolean type */
  83:Generated_Source\PSoC5/ErikaOS_cortex_mx_ee_cpu.inc **** #ifndef EE_TYPEBOOL
  84:Generated_Source\PSoC5/ErikaOS_cortex_mx_ee_cpu.inc **** typedef EE_UREG EE_TYPEBOOL;
  85:Generated_Source\PSoC5/ErikaOS_cortex_mx_ee_cpu.inc **** #endif
  86:Generated_Source\PSoC5/ErikaOS_cortex_mx_ee_cpu.inc **** 
  87:Generated_Source\PSoC5/ErikaOS_cortex_mx_ee_cpu.inc **** /* boolean true define */
  88:Generated_Source\PSoC5/ErikaOS_cortex_mx_ee_cpu.inc **** #ifndef EE_TRUE
  89:Generated_Source\PSoC5/ErikaOS_cortex_mx_ee_cpu.inc **** #define EE_TRUE ((EE_TYPEBOOL)1U)
  90:Generated_Source\PSoC5/ErikaOS_cortex_mx_ee_cpu.inc **** #endif
  91:Generated_Source\PSoC5/ErikaOS_cortex_mx_ee_cpu.inc **** 
  92:Generated_Source\PSoC5/ErikaOS_cortex_mx_ee_cpu.inc **** /* boolean false define */
  93:Generated_Source\PSoC5/ErikaOS_cortex_mx_ee_cpu.inc **** #ifndef EE_FALSE
  94:Generated_Source\PSoC5/ErikaOS_cortex_mx_ee_cpu.inc **** #define EE_FALSE ((EE_TYPEBOOL)0U)
  95:Generated_Source\PSoC5/ErikaOS_cortex_mx_ee_cpu.inc **** #endif
  96:Generated_Source\PSoC5/ErikaOS_cortex_mx_ee_cpu.inc **** 
  97:Generated_Source\PSoC5/ErikaOS_cortex_mx_ee_cpu.inc **** #define	EE_HWREG_PTR		volatile EE_UREG *
  98:Generated_Source\PSoC5/ErikaOS_cortex_mx_ee_cpu.inc **** #define	EE_HWREG_ADDR(x)	((EE_HWREG_PTR)(x))
  99:Generated_Source\PSoC5/ErikaOS_cortex_mx_ee_cpu.inc **** #define	EE_HWREG(x)		(*EE_HWREG_ADDR(x))
 100:Generated_Source\PSoC5/ErikaOS_cortex_mx_ee_cpu.inc **** 
 101:Generated_Source\PSoC5/ErikaOS_cortex_mx_ee_cpu.inc **** #ifdef __GNU__
 102:Generated_Source\PSoC5/ErikaOS_cortex_mx_ee_cpu.inc **** 
 103:Generated_Source\PSoC5/ErikaOS_cortex_mx_ee_cpu.inc **** /* Get current SP */
 104:Generated_Source\PSoC5/ErikaOS_cortex_mx_ee_cpu.inc **** __INLINE__ EE_UINT32  __current_sp(void)
 105:Generated_Source\PSoC5/ErikaOS_cortex_mx_ee_cpu.inc **** {
 106:Generated_Source\PSoC5/ErikaOS_cortex_mx_ee_cpu.inc **** EE_UINT32 temp;
 107:Generated_Source\PSoC5/ErikaOS_cortex_mx_ee_cpu.inc **** __ASM ("mov %0, sp" : "=r" (temp) : );
 108:Generated_Source\PSoC5/ErikaOS_cortex_mx_ee_cpu.inc **** return temp;
 109:Generated_Source\PSoC5/ErikaOS_cortex_mx_ee_cpu.inc **** }
 110:Generated_Source\PSoC5/ErikaOS_cortex_mx_ee_cpu.inc **** 
 111:Generated_Source\PSoC5/ErikaOS_cortex_mx_ee_cpu.inc **** /* Set a breakpoint */
 112:Generated_Source\PSoC5/ErikaOS_cortex_mx_ee_cpu.inc **** #define __breakpoint(value)	__ASM ("bkpt "#value)
 113:Generated_Source\PSoC5/ErikaOS_cortex_mx_ee_cpu.inc **** 
 114:Generated_Source\PSoC5/ErikaOS_cortex_mx_ee_cpu.inc **** #endif
 115:Generated_Source\PSoC5/ErikaOS_cortex_mx_ee_cpu.inc **** 
 116:Generated_Source\PSoC5/ErikaOS_cortex_mx_ee_cpu.inc **** /* ISR Priority representation type */
 117:Generated_Source\PSoC5/ErikaOS_cortex_mx_ee_cpu.inc **** typedef EE_UREG EE_TYPEISR2PRIO;
 118:Generated_Source\PSoC5/ErikaOS_cortex_mx_ee_cpu.inc **** 
 119:Generated_Source\PSoC5/ErikaOS_cortex_mx_ee_cpu.inc **** /* Thread IDs */
 120:Generated_Source\PSoC5/ErikaOS_cortex_mx_ee_cpu.inc **** typedef EE_INT32 EE_TID;
 121:Generated_Source\PSoC5/ErikaOS_cortex_mx_ee_cpu.inc **** 
 122:Generated_Source\PSoC5/ErikaOS_cortex_mx_ee_cpu.inc **** /* Thread IDs - unsigned version*/
 123:Generated_Source\PSoC5/ErikaOS_cortex_mx_ee_cpu.inc **** typedef EE_UINT32 EE_UTID;
 124:Generated_Source\PSoC5/ErikaOS_cortex_mx_ee_cpu.inc **** 
 125:Generated_Source\PSoC5/ErikaOS_cortex_mx_ee_cpu.inc **** /* Used by the common layer to decide whether to start a new thread */
ARM GAS  C:\Users\zakis\AppData\Local\Temp\ccd2W9SZ.s 			page 5


 126:Generated_Source\PSoC5/ErikaOS_cortex_mx_ee_cpu.inc **** #define TID_IS_STACKED_MARK 0x80000000
 127:Generated_Source\PSoC5/ErikaOS_cortex_mx_ee_cpu.inc **** 
 128:Generated_Source\PSoC5/ErikaOS_cortex_mx_ee_cpu.inc **** /* EE_TYPEIRQ is currently unused */
 129:Generated_Source\PSoC5/ErikaOS_cortex_mx_ee_cpu.inc **** 
 130:Generated_Source\PSoC5/ErikaOS_cortex_mx_ee_cpu.inc **** /* XXX: define EE_TIME? */
 131:Generated_Source\PSoC5/ErikaOS_cortex_mx_ee_cpu.inc **** 
 132:Generated_Source\PSoC5/ErikaOS_cortex_mx_ee_cpu.inc **** /* Use the "standard" implementation */
 133:Generated_Source\PSoC5/ErikaOS_cortex_mx_ee_cpu.inc **** #include "ErikaOS_common_ee_hal_structs.inc"
 134:Generated_Source\PSoC5/ErikaOS_cortex_mx_ee_cpu.inc **** 
 135:Generated_Source\PSoC5/ErikaOS_cortex_mx_ee_cpu.inc **** /******************************************************************************
 136:Generated_Source\PSoC5/ErikaOS_cortex_mx_ee_cpu.inc ****  Application dependent data types
 137:Generated_Source\PSoC5/ErikaOS_cortex_mx_ee_cpu.inc ****  ******************************************************************************/
 138:Generated_Source\PSoC5/ErikaOS_cortex_mx_ee_cpu.inc **** 
 139:Generated_Source\PSoC5/ErikaOS_cortex_mx_ee_cpu.inc **** #ifdef	__HAS_TYPES_H__
 140:Generated_Source\PSoC5/ErikaOS_cortex_mx_ee_cpu.inc **** #include	"types.h"
 141:Generated_Source\PSoC5/ErikaOS_cortex_mx_ee_cpu.inc **** #endif
 142:Generated_Source\PSoC5/ErikaOS_cortex_mx_ee_cpu.inc **** 
 143:Generated_Source\PSoC5/ErikaOS_cortex_mx_ee_cpu.inc **** /******************************************************************************
 144:Generated_Source\PSoC5/ErikaOS_cortex_mx_ee_cpu.inc ****  CPU Peripherals
 145:Generated_Source\PSoC5/ErikaOS_cortex_mx_ee_cpu.inc ****  ******************************************************************************/
 146:Generated_Source\PSoC5/ErikaOS_cortex_mx_ee_cpu.inc **** 
 147:Generated_Source\PSoC5/ErikaOS_cortex_mx_ee_cpu.inc **** #ifdef __CORTEX_MX__
 148:Generated_Source\PSoC5/ErikaOS_cortex_mx_ee_cpu.inc **** #include "ErikaOS_cortex_mx_ee_nvic.inc"
 149:Generated_Source\PSoC5/ErikaOS_cortex_mx_ee_cpu.inc **** #include "ErikaOS_cortex_mx_ee_systick.inc"
 150:Generated_Source\PSoC5/ErikaOS_cortex_mx_ee_cpu.inc **** #endif
 151:Generated_Source\PSoC5/ErikaOS_cortex_mx_ee_cpu.inc **** 
 152:Generated_Source\PSoC5/ErikaOS_cortex_mx_ee_cpu.inc **** /******************************************************************************
 153:Generated_Source\PSoC5/ErikaOS_cortex_mx_ee_cpu.inc ****  HAL Variables
 154:Generated_Source\PSoC5/ErikaOS_cortex_mx_ee_cpu.inc ****  ******************************************************************************/
 155:Generated_Source\PSoC5/ErikaOS_cortex_mx_ee_cpu.inc **** 
 156:Generated_Source\PSoC5/ErikaOS_cortex_mx_ee_cpu.inc **** #ifdef __MULTI__
 157:Generated_Source\PSoC5/ErikaOS_cortex_mx_ee_cpu.inc **** 
 158:Generated_Source\PSoC5/ErikaOS_cortex_mx_ee_cpu.inc **** /* Top-of-stack of each private stack */
 159:Generated_Source\PSoC5/ErikaOS_cortex_mx_ee_cpu.inc **** extern struct EE_TOS EE_cortex_mx_system_tos[];
 160:Generated_Source\PSoC5/ErikaOS_cortex_mx_ee_cpu.inc **** //#define	EE_std_system_tos EE_cortex_mx_system_tos
 161:Generated_Source\PSoC5/ErikaOS_cortex_mx_ee_cpu.inc **** 
 162:Generated_Source\PSoC5/ErikaOS_cortex_mx_ee_cpu.inc **** /* Index of the current stack */
 163:Generated_Source\PSoC5/ErikaOS_cortex_mx_ee_cpu.inc **** extern EE_UREG EE_cortex_mx_active_tos;
 164:Generated_Source\PSoC5/ErikaOS_cortex_mx_ee_cpu.inc **** #define	EE_hal_active_tos EE_cortex_mx_active_tos
 165:Generated_Source\PSoC5/ErikaOS_cortex_mx_ee_cpu.inc **** 
 166:Generated_Source\PSoC5/ErikaOS_cortex_mx_ee_cpu.inc **** /*extern	EE_UREG EE_pic30_thread_tos[];
 167:Generated_Source\PSoC5/ErikaOS_cortex_mx_ee_cpu.inc **** #define	EE_std_thread_tos EE_pic30_thread_tos */
 168:Generated_Source\PSoC5/ErikaOS_cortex_mx_ee_cpu.inc **** #endif /* __MULTI__ */
 169:Generated_Source\PSoC5/ErikaOS_cortex_mx_ee_cpu.inc **** 
 170:Generated_Source\PSoC5/ErikaOS_cortex_mx_ee_cpu.inc **** /*********************************************************************
 171:Generated_Source\PSoC5/ErikaOS_cortex_mx_ee_cpu.inc ****  Cortex M0 interrupt disabling/enabling
 172:Generated_Source\PSoC5/ErikaOS_cortex_mx_ee_cpu.inc ****  *********************************************************************/
 173:Generated_Source\PSoC5/ErikaOS_cortex_mx_ee_cpu.inc **** 
 174:Generated_Source\PSoC5/ErikaOS_cortex_mx_ee_cpu.inc **** /* Used to check the value returned by EE_cortex_mx_disableIRQ */
 175:Generated_Source\PSoC5/ErikaOS_cortex_mx_ee_cpu.inc **** #define EE_cortex_mx_are_IRQs_enabled(ie) ((ie) ^ 1)
 176:Generated_Source\PSoC5/ErikaOS_cortex_mx_ee_cpu.inc **** 
 177:Generated_Source\PSoC5/ErikaOS_cortex_mx_ee_cpu.inc **** /**
 178:Generated_Source\PSoC5/ErikaOS_cortex_mx_ee_cpu.inc ****  * Enable interrupts
 179:Generated_Source\PSoC5/ErikaOS_cortex_mx_ee_cpu.inc ****  */
 180:Generated_Source\PSoC5/ErikaOS_cortex_mx_ee_cpu.inc **** __INLINE__ void  EE_cortex_mx_enableIRQ(void)
 181:Generated_Source\PSoC5/ErikaOS_cortex_mx_ee_cpu.inc **** {
 182:Generated_Source\PSoC5/ErikaOS_cortex_mx_ee_cpu.inc **** #ifdef __IAR__
ARM GAS  C:\Users\zakis\AppData\Local\Temp\ccd2W9SZ.s 			page 6


 183:Generated_Source\PSoC5/ErikaOS_cortex_mx_ee_cpu.inc **** 	__ASM ("cpsie i");
 184:Generated_Source\PSoC5/ErikaOS_cortex_mx_ee_cpu.inc **** #else	/* __IAR__ */
 185:Generated_Source\PSoC5/ErikaOS_cortex_mx_ee_cpu.inc **** #ifdef __CCS__
 186:Generated_Source\PSoC5/ErikaOS_cortex_mx_ee_cpu.inc **** 	__ASM ("    cpsie    i\n");
 187:Generated_Source\PSoC5/ErikaOS_cortex_mx_ee_cpu.inc **** #else	/* __CCS__ */
 188:Generated_Source\PSoC5/ErikaOS_cortex_mx_ee_cpu.inc **** #ifdef __KEIL__
 189:Generated_Source\PSoC5/ErikaOS_cortex_mx_ee_cpu.inc **** 	__enable_irq();
 190:Generated_Source\PSoC5/ErikaOS_cortex_mx_ee_cpu.inc **** #else	/* __KEIL__ */
 191:Generated_Source\PSoC5/ErikaOS_cortex_mx_ee_cpu.inc **** 	__ASM volatile("cpsie i");
 192:Generated_Source\PSoC5/ErikaOS_cortex_mx_ee_cpu.inc **** #endif	/* !__KEIL__ */
 193:Generated_Source\PSoC5/ErikaOS_cortex_mx_ee_cpu.inc **** #endif	/* !__CCS__ */
 194:Generated_Source\PSoC5/ErikaOS_cortex_mx_ee_cpu.inc **** #endif	/* !__IAR__ */
 195:Generated_Source\PSoC5/ErikaOS_cortex_mx_ee_cpu.inc **** }
 196:Generated_Source\PSoC5/ErikaOS_cortex_mx_ee_cpu.inc **** 
 197:Generated_Source\PSoC5/ErikaOS_cortex_mx_ee_cpu.inc **** /**
 198:Generated_Source\PSoC5/ErikaOS_cortex_mx_ee_cpu.inc ****  * Disable interrupts
 199:Generated_Source\PSoC5/ErikaOS_cortex_mx_ee_cpu.inc ****  */
 200:Generated_Source\PSoC5/ErikaOS_cortex_mx_ee_cpu.inc **** __INLINE__ void  EE_cortex_mx_disableIRQ(void)
 201:Generated_Source\PSoC5/ErikaOS_cortex_mx_ee_cpu.inc **** {
 202:Generated_Source\PSoC5/ErikaOS_cortex_mx_ee_cpu.inc **** #ifdef __IAR__
 203:Generated_Source\PSoC5/ErikaOS_cortex_mx_ee_cpu.inc **** 	__ASM ("cpsid i");
 204:Generated_Source\PSoC5/ErikaOS_cortex_mx_ee_cpu.inc **** #else	/* __IAR__ */
 205:Generated_Source\PSoC5/ErikaOS_cortex_mx_ee_cpu.inc **** #ifdef __CCS__
 206:Generated_Source\PSoC5/ErikaOS_cortex_mx_ee_cpu.inc **** 	__ASM ("    cpsid    i\n");
 207:Generated_Source\PSoC5/ErikaOS_cortex_mx_ee_cpu.inc **** #else	/* __CCS__ */
 208:Generated_Source\PSoC5/ErikaOS_cortex_mx_ee_cpu.inc **** #ifdef __KEIL__
 209:Generated_Source\PSoC5/ErikaOS_cortex_mx_ee_cpu.inc **** 	__disable_irq();
 210:Generated_Source\PSoC5/ErikaOS_cortex_mx_ee_cpu.inc **** #else	/* __KEIL__ */
 211:Generated_Source\PSoC5/ErikaOS_cortex_mx_ee_cpu.inc **** 	__ASM volatile("cpsid i");
  71              		.loc 2 211 0
  72              		.syntax unified
  73              	@ 211 "Generated_Source\PSoC5/ErikaOS_cortex_mx_ee_cpu.inc" 1
  74 000a 72B6     		cpsid i
  75              	@ 0 "" 2
  76              		.thumb
  77              		.syntax unified
  78              	.LBE177:
  79              	.LBE176:
  80              	.LBB178:
  81              	.LBB179:
 212:Generated_Source\PSoC5/ErikaOS_cortex_mx_ee_cpu.inc **** #endif	/* !__KEIL__ */
 213:Generated_Source\PSoC5/ErikaOS_cortex_mx_ee_cpu.inc **** #endif	/* !__CCS__ */
 214:Generated_Source\PSoC5/ErikaOS_cortex_mx_ee_cpu.inc **** #endif	/* !__IAR__ */
 215:Generated_Source\PSoC5/ErikaOS_cortex_mx_ee_cpu.inc **** }
 216:Generated_Source\PSoC5/ErikaOS_cortex_mx_ee_cpu.inc **** 
 217:Generated_Source\PSoC5/ErikaOS_cortex_mx_ee_cpu.inc **** /**
 218:Generated_Source\PSoC5/ErikaOS_cortex_mx_ee_cpu.inc ****  * Resume interrupts
 219:Generated_Source\PSoC5/ErikaOS_cortex_mx_ee_cpu.inc ****  */
 220:Generated_Source\PSoC5/ErikaOS_cortex_mx_ee_cpu.inc **** __INLINE__ void  EE_cortex_mx_resumeIRQ(EE_FREG f)
 221:Generated_Source\PSoC5/ErikaOS_cortex_mx_ee_cpu.inc **** {
 222:Generated_Source\PSoC5/ErikaOS_cortex_mx_ee_cpu.inc **** #ifdef __IAR__
 223:Generated_Source\PSoC5/ErikaOS_cortex_mx_ee_cpu.inc **** 	__set_PRIMASK(f);
 224:Generated_Source\PSoC5/ErikaOS_cortex_mx_ee_cpu.inc **** #else	/* __IAR__ */
 225:Generated_Source\PSoC5/ErikaOS_cortex_mx_ee_cpu.inc **** #ifdef __CCS__
 226:Generated_Source\PSoC5/ErikaOS_cortex_mx_ee_cpu.inc **** 	__ASM ("    msr    primask, r0\n");
 227:Generated_Source\PSoC5/ErikaOS_cortex_mx_ee_cpu.inc **** #else	/* __CCS__ */
 228:Generated_Source\PSoC5/ErikaOS_cortex_mx_ee_cpu.inc **** #ifdef __KEIL__
ARM GAS  C:\Users\zakis\AppData\Local\Temp\ccd2W9SZ.s 			page 7


 229:Generated_Source\PSoC5/ErikaOS_cortex_mx_ee_cpu.inc **** 	register EE_FREG PRIMASK __ASM("primask");
 230:Generated_Source\PSoC5/ErikaOS_cortex_mx_ee_cpu.inc **** 	PRIMASK = f;
 231:Generated_Source\PSoC5/ErikaOS_cortex_mx_ee_cpu.inc **** #else	/* __KEIL__ */
 232:Generated_Source\PSoC5/ErikaOS_cortex_mx_ee_cpu.inc **** 	__ASM volatile("msr primask, %0" :: "r" (f));
 233:Generated_Source\PSoC5/ErikaOS_cortex_mx_ee_cpu.inc **** #endif	/* !__KEIL__ */
 234:Generated_Source\PSoC5/ErikaOS_cortex_mx_ee_cpu.inc **** #endif	/* !__CCS__ */
 235:Generated_Source\PSoC5/ErikaOS_cortex_mx_ee_cpu.inc **** #endif	/* !__IAR__ */
 236:Generated_Source\PSoC5/ErikaOS_cortex_mx_ee_cpu.inc **** }
 237:Generated_Source\PSoC5/ErikaOS_cortex_mx_ee_cpu.inc **** 
 238:Generated_Source\PSoC5/ErikaOS_cortex_mx_ee_cpu.inc **** /**
 239:Generated_Source\PSoC5/ErikaOS_cortex_mx_ee_cpu.inc ****  * Suspend interrupts
 240:Generated_Source\PSoC5/ErikaOS_cortex_mx_ee_cpu.inc ****  */
 241:Generated_Source\PSoC5/ErikaOS_cortex_mx_ee_cpu.inc **** __INLINE__ EE_FREG  EE_cortex_mx_suspendIRQ(void)
 242:Generated_Source\PSoC5/ErikaOS_cortex_mx_ee_cpu.inc **** {
 243:Generated_Source\PSoC5/ErikaOS_cortex_mx_ee_cpu.inc **** #ifndef __CCS__
 244:Generated_Source\PSoC5/ErikaOS_cortex_mx_ee_cpu.inc **** 	EE_FREG istat;
 245:Generated_Source\PSoC5/ErikaOS_cortex_mx_ee_cpu.inc **** #endif
 246:Generated_Source\PSoC5/ErikaOS_cortex_mx_ee_cpu.inc **** #ifdef __IAR__
 247:Generated_Source\PSoC5/ErikaOS_cortex_mx_ee_cpu.inc **** 	 istat = __get_PRIMASK();
 248:Generated_Source\PSoC5/ErikaOS_cortex_mx_ee_cpu.inc **** 	__ASM ("cpsid i");
 249:Generated_Source\PSoC5/ErikaOS_cortex_mx_ee_cpu.inc **** #else	/* __IAR__ */
 250:Generated_Source\PSoC5/ErikaOS_cortex_mx_ee_cpu.inc **** #ifdef __CCS__
 251:Generated_Source\PSoC5/ErikaOS_cortex_mx_ee_cpu.inc **** 	__ASM ("    mrs     r0, primask\n"
 252:Generated_Source\PSoC5/ErikaOS_cortex_mx_ee_cpu.inc **** 	       "    cpsid   i\n"
 253:Generated_Source\PSoC5/ErikaOS_cortex_mx_ee_cpu.inc **** 	       "    bx      lr\n");
 254:Generated_Source\PSoC5/ErikaOS_cortex_mx_ee_cpu.inc **** #else	/* __CCS__ */
 255:Generated_Source\PSoC5/ErikaOS_cortex_mx_ee_cpu.inc **** #ifdef __KEIL__
 256:Generated_Source\PSoC5/ErikaOS_cortex_mx_ee_cpu.inc **** 	register EE_FREG PRIMASK __ASM("primask");
 257:Generated_Source\PSoC5/ErikaOS_cortex_mx_ee_cpu.inc **** 	istat = PRIMASK;
 258:Generated_Source\PSoC5/ErikaOS_cortex_mx_ee_cpu.inc **** 	__disable_irq();
 259:Generated_Source\PSoC5/ErikaOS_cortex_mx_ee_cpu.inc **** #else	/* __KEIL__ */
 260:Generated_Source\PSoC5/ErikaOS_cortex_mx_ee_cpu.inc **** 	__ASM volatile ("mrs %0, primask" : "=r" (istat) );
 261:Generated_Source\PSoC5/ErikaOS_cortex_mx_ee_cpu.inc **** 	__ASM volatile ("cpsid i");
 262:Generated_Source\PSoC5/ErikaOS_cortex_mx_ee_cpu.inc **** #endif	/* !__KEIL__ */
 263:Generated_Source\PSoC5/ErikaOS_cortex_mx_ee_cpu.inc **** #endif	/* !__CCS__ */
 264:Generated_Source\PSoC5/ErikaOS_cortex_mx_ee_cpu.inc **** #endif	/* !__IAR__ */
 265:Generated_Source\PSoC5/ErikaOS_cortex_mx_ee_cpu.inc **** #ifdef __CCS__
 266:Generated_Source\PSoC5/ErikaOS_cortex_mx_ee_cpu.inc **** 	return 0;
 267:Generated_Source\PSoC5/ErikaOS_cortex_mx_ee_cpu.inc **** #else
 268:Generated_Source\PSoC5/ErikaOS_cortex_mx_ee_cpu.inc **** 	return istat;
 269:Generated_Source\PSoC5/ErikaOS_cortex_mx_ee_cpu.inc **** #endif
 270:Generated_Source\PSoC5/ErikaOS_cortex_mx_ee_cpu.inc **** }
 271:Generated_Source\PSoC5/ErikaOS_cortex_mx_ee_cpu.inc **** 
 272:Generated_Source\PSoC5/ErikaOS_cortex_mx_ee_cpu.inc **** /**
 273:Generated_Source\PSoC5/ErikaOS_cortex_mx_ee_cpu.inc ****  * Return true (not 0) if IRQs are enabled, 0 (false) if IRQ are disabled.
 274:Generated_Source\PSoC5/ErikaOS_cortex_mx_ee_cpu.inc ****  */
 275:Generated_Source\PSoC5/ErikaOS_cortex_mx_ee_cpu.inc **** __INLINE__ EE_UINT32  EE_cortex_mx_get_IRQ_enabled(void)
 276:Generated_Source\PSoC5/ErikaOS_cortex_mx_ee_cpu.inc **** {
 277:Generated_Source\PSoC5/ErikaOS_cortex_mx_ee_cpu.inc **** #ifndef __CCS__
 278:Generated_Source\PSoC5/ErikaOS_cortex_mx_ee_cpu.inc **** 	EE_UREG ie;
 279:Generated_Source\PSoC5/ErikaOS_cortex_mx_ee_cpu.inc **** #endif
 280:Generated_Source\PSoC5/ErikaOS_cortex_mx_ee_cpu.inc **** #ifdef __IAR__
 281:Generated_Source\PSoC5/ErikaOS_cortex_mx_ee_cpu.inc **** 	ie = __get_PRIMASK();
 282:Generated_Source\PSoC5/ErikaOS_cortex_mx_ee_cpu.inc **** #else	/* __IAR__ */
 283:Generated_Source\PSoC5/ErikaOS_cortex_mx_ee_cpu.inc **** #ifdef __CCS__
 284:Generated_Source\PSoC5/ErikaOS_cortex_mx_ee_cpu.inc **** 	__ASM ("    MRS     r0, PRIMASK\n"
 285:Generated_Source\PSoC5/ErikaOS_cortex_mx_ee_cpu.inc **** 	       "    EOR     r0, #1\n"
ARM GAS  C:\Users\zakis\AppData\Local\Temp\ccd2W9SZ.s 			page 8


 286:Generated_Source\PSoC5/ErikaOS_cortex_mx_ee_cpu.inc **** 	       "    bx      lr\n");
 287:Generated_Source\PSoC5/ErikaOS_cortex_mx_ee_cpu.inc **** #else	/* __CCS__ */
 288:Generated_Source\PSoC5/ErikaOS_cortex_mx_ee_cpu.inc **** #ifdef __KEIL__
 289:Generated_Source\PSoC5/ErikaOS_cortex_mx_ee_cpu.inc **** 	register EE_FREG PRIMASK __ASM("primask");
 290:Generated_Source\PSoC5/ErikaOS_cortex_mx_ee_cpu.inc **** 	ie = PRIMASK;
 291:Generated_Source\PSoC5/ErikaOS_cortex_mx_ee_cpu.inc **** #else	/* __KEIL__ */
 292:Generated_Source\PSoC5/ErikaOS_cortex_mx_ee_cpu.inc **** 	__ASM volatile ("MRS %0, primask" : "=r" (ie) );
 293:Generated_Source\PSoC5/ErikaOS_cortex_mx_ee_cpu.inc **** #endif	/* !__KEIL__ */
 294:Generated_Source\PSoC5/ErikaOS_cortex_mx_ee_cpu.inc **** #endif	/* !__CCS__ */
 295:Generated_Source\PSoC5/ErikaOS_cortex_mx_ee_cpu.inc **** #endif	/* !__IAR__ */
 296:Generated_Source\PSoC5/ErikaOS_cortex_mx_ee_cpu.inc **** #ifdef __CCS__
 297:Generated_Source\PSoC5/ErikaOS_cortex_mx_ee_cpu.inc **** 	return 0;
 298:Generated_Source\PSoC5/ErikaOS_cortex_mx_ee_cpu.inc **** #else
 299:Generated_Source\PSoC5/ErikaOS_cortex_mx_ee_cpu.inc **** 	return EE_cortex_mx_are_IRQs_enabled(ie);
 300:Generated_Source\PSoC5/ErikaOS_cortex_mx_ee_cpu.inc **** #endif
 301:Generated_Source\PSoC5/ErikaOS_cortex_mx_ee_cpu.inc **** }
 302:Generated_Source\PSoC5/ErikaOS_cortex_mx_ee_cpu.inc **** 
 303:Generated_Source\PSoC5/ErikaOS_cortex_mx_ee_cpu.inc **** __INLINE__ EE_TYPEISR2PRIO  EE_cortex_mx_get_int_prio(void)
 304:Generated_Source\PSoC5/ErikaOS_cortex_mx_ee_cpu.inc **** {
 305:Generated_Source\PSoC5/ErikaOS_cortex_mx_ee_cpu.inc **** #ifdef __CORTEX_M4__
 306:Generated_Source\PSoC5/ErikaOS_cortex_mx_ee_cpu.inc **** 
 307:Generated_Source\PSoC5/ErikaOS_cortex_mx_ee_cpu.inc **** #ifndef __CCS__
 308:Generated_Source\PSoC5/ErikaOS_cortex_mx_ee_cpu.inc **** 	register EE_UREG prio;
 309:Generated_Source\PSoC5/ErikaOS_cortex_mx_ee_cpu.inc **** #ifdef	__KEIL__
 310:Generated_Source\PSoC5/ErikaOS_cortex_mx_ee_cpu.inc **** 	register EE_FREG BASEPRI __ASM("basepri");
 311:Generated_Source\PSoC5/ErikaOS_cortex_mx_ee_cpu.inc **** #endif
 312:Generated_Source\PSoC5/ErikaOS_cortex_mx_ee_cpu.inc **** 
 313:Generated_Source\PSoC5/ErikaOS_cortex_mx_ee_cpu.inc **** #endif
 314:Generated_Source\PSoC5/ErikaOS_cortex_mx_ee_cpu.inc **** 
 315:Generated_Source\PSoC5/ErikaOS_cortex_mx_ee_cpu.inc **** #ifdef __CCS__
 316:Generated_Source\PSoC5/ErikaOS_cortex_mx_ee_cpu.inc **** 	/* NVIC_INT_PRI_S = 5 */
 317:Generated_Source\PSoC5/ErikaOS_cortex_mx_ee_cpu.inc **** 	__ASM ("    MRS     R0, BASEPRI\n"
 318:Generated_Source\PSoC5/ErikaOS_cortex_mx_ee_cpu.inc **** 	       "    ASR     R0, #5\n"
 319:Generated_Source\PSoC5/ErikaOS_cortex_mx_ee_cpu.inc **** 	       "    BLX     LR\n");
 320:Generated_Source\PSoC5/ErikaOS_cortex_mx_ee_cpu.inc **** #else	/* __CCS__ */
 321:Generated_Source\PSoC5/ErikaOS_cortex_mx_ee_cpu.inc **** #ifdef __KEIL__
 322:Generated_Source\PSoC5/ErikaOS_cortex_mx_ee_cpu.inc **** 	prio = BASEPRI;
 323:Generated_Source\PSoC5/ErikaOS_cortex_mx_ee_cpu.inc **** #else	/* __KEIL__ */
 324:Generated_Source\PSoC5/ErikaOS_cortex_mx_ee_cpu.inc **** #ifdef __GNU__
 325:Generated_Source\PSoC5/ErikaOS_cortex_mx_ee_cpu.inc **** 	__ASM volatile("MRS %0, BASEPRI" : "=r" (prio) :: );
  82              		.loc 2 325 0
  83              		.syntax unified
  84              	@ 325 "Generated_Source\PSoC5/ErikaOS_cortex_mx_ee_cpu.inc" 1
  85 000c EFF31184 		MRS r4, BASEPRI
  86              	@ 0 "" 2
  87              	.LVL2:
  88              		.thumb
  89              		.syntax unified
  90              	.LBE179:
  91              	.LBE178:
  92              	.LBB180:
  93              	.LBB181:
 326:Generated_Source\PSoC5/ErikaOS_cortex_mx_ee_cpu.inc **** #else
 327:Generated_Source\PSoC5/ErikaOS_cortex_mx_ee_cpu.inc **** 	__ASM volatile("MRS %0, BASEPRI" :: "=r" (prio));
 328:Generated_Source\PSoC5/ErikaOS_cortex_mx_ee_cpu.inc **** #endif	/* !__GNU__ */
 329:Generated_Source\PSoC5/ErikaOS_cortex_mx_ee_cpu.inc **** #endif	/* !__KEIL__ */
 330:Generated_Source\PSoC5/ErikaOS_cortex_mx_ee_cpu.inc **** #endif	/* !__CCS__ */
ARM GAS  C:\Users\zakis\AppData\Local\Temp\ccd2W9SZ.s 			page 9


 331:Generated_Source\PSoC5/ErikaOS_cortex_mx_ee_cpu.inc **** 
 332:Generated_Source\PSoC5/ErikaOS_cortex_mx_ee_cpu.inc **** #ifdef __CCS__
 333:Generated_Source\PSoC5/ErikaOS_cortex_mx_ee_cpu.inc **** 	return 0;
 334:Generated_Source\PSoC5/ErikaOS_cortex_mx_ee_cpu.inc **** #else
 335:Generated_Source\PSoC5/ErikaOS_cortex_mx_ee_cpu.inc **** 	return prio >> NVIC_INT_PRI_S;
 336:Generated_Source\PSoC5/ErikaOS_cortex_mx_ee_cpu.inc **** #endif
 337:Generated_Source\PSoC5/ErikaOS_cortex_mx_ee_cpu.inc **** 
 338:Generated_Source\PSoC5/ErikaOS_cortex_mx_ee_cpu.inc **** #else	/* __CORTEX_M4__ */
 339:Generated_Source\PSoC5/ErikaOS_cortex_mx_ee_cpu.inc **** 	return 0;
 340:Generated_Source\PSoC5/ErikaOS_cortex_mx_ee_cpu.inc **** #endif	/* !__CORTEX_M4__ */
 341:Generated_Source\PSoC5/ErikaOS_cortex_mx_ee_cpu.inc **** }
 342:Generated_Source\PSoC5/ErikaOS_cortex_mx_ee_cpu.inc **** 
 343:Generated_Source\PSoC5/ErikaOS_cortex_mx_ee_cpu.inc **** __INLINE__ void  EE_cortex_mx_set_int_prio(
 344:Generated_Source\PSoC5/ErikaOS_cortex_mx_ee_cpu.inc ****   EE_TYPEISR2PRIO prio
 345:Generated_Source\PSoC5/ErikaOS_cortex_mx_ee_cpu.inc **** )
 346:Generated_Source\PSoC5/ErikaOS_cortex_mx_ee_cpu.inc **** {
 347:Generated_Source\PSoC5/ErikaOS_cortex_mx_ee_cpu.inc **** #ifdef __CORTEX_M4__
 348:Generated_Source\PSoC5/ErikaOS_cortex_mx_ee_cpu.inc **** #ifdef __CCS__
 349:Generated_Source\PSoC5/ErikaOS_cortex_mx_ee_cpu.inc **** 	/* NVIC_INT_PRI_S = 5 */
 350:Generated_Source\PSoC5/ErikaOS_cortex_mx_ee_cpu.inc **** 	__ASM ("    LSL    R0, #5\n"
 351:Generated_Source\PSoC5/ErikaOS_cortex_mx_ee_cpu.inc **** 	       "    MSR    BASEPRI, R0\n");
 352:Generated_Source\PSoC5/ErikaOS_cortex_mx_ee_cpu.inc **** #else	/* __CCS__ */
 353:Generated_Source\PSoC5/ErikaOS_cortex_mx_ee_cpu.inc **** #ifdef __KEIL__
 354:Generated_Source\PSoC5/ErikaOS_cortex_mx_ee_cpu.inc **** 	register EE_FREG BASEPRI __ASM("basepri");
 355:Generated_Source\PSoC5/ErikaOS_cortex_mx_ee_cpu.inc **** 	BASEPRI = (prio << NVIC_INT_PRI_S);
 356:Generated_Source\PSoC5/ErikaOS_cortex_mx_ee_cpu.inc **** #else	/* __KEIL__ */
 357:Generated_Source\PSoC5/ErikaOS_cortex_mx_ee_cpu.inc **** #ifdef __GNU__
 358:Generated_Source\PSoC5/ErikaOS_cortex_mx_ee_cpu.inc **** 	__ASM volatile("MSR BASEPRI, %0" :: "r" (prio << NVIC_INT_PRI_S) : );
 359:Generated_Source\PSoC5/ErikaOS_cortex_mx_ee_cpu.inc **** #else
 360:Generated_Source\PSoC5/ErikaOS_cortex_mx_ee_cpu.inc **** 	__ASM volatile("MSR BASEPRI, %0" :: "r" (prio << NVIC_INT_PRI_S));
 361:Generated_Source\PSoC5/ErikaOS_cortex_mx_ee_cpu.inc **** #endif	/* !__GNU__ */
 362:Generated_Source\PSoC5/ErikaOS_cortex_mx_ee_cpu.inc **** #endif	/* !__KEIL__ */
 363:Generated_Source\PSoC5/ErikaOS_cortex_mx_ee_cpu.inc **** #endif	/* !__CCS__ */
 364:Generated_Source\PSoC5/ErikaOS_cortex_mx_ee_cpu.inc **** #endif	/* __CORTEX_M4__ */
 365:Generated_Source\PSoC5/ErikaOS_cortex_mx_ee_cpu.inc **** }
 366:Generated_Source\PSoC5/ErikaOS_cortex_mx_ee_cpu.inc **** 
 367:Generated_Source\PSoC5/ErikaOS_cortex_mx_ee_cpu.inc **** __INLINE__ EE_TYPEISR2PRIO  EE_cortex_mx_get_isr_prio(
 368:Generated_Source\PSoC5/ErikaOS_cortex_mx_ee_cpu.inc ****   void
 369:Generated_Source\PSoC5/ErikaOS_cortex_mx_ee_cpu.inc **** )
 370:Generated_Source\PSoC5/ErikaOS_cortex_mx_ee_cpu.inc **** {
 371:Generated_Source\PSoC5/ErikaOS_cortex_mx_ee_cpu.inc **** #ifdef __CORTEX_M4__
 372:Generated_Source\PSoC5/ErikaOS_cortex_mx_ee_cpu.inc ****   register EE_UREG vectact = NVIC_INT_CTRL_R & NVIC_INT_CTRL_VEC_ACT_M;
  94              		.loc 2 372 0
  95 0010 1E4B     		ldr	r3, .L9
  96 0012 1B68     		ldr	r3, [r3]
  97 0014 DBB2     		uxtb	r3, r3
  98              	.LVL3:
 373:Generated_Source\PSoC5/ErikaOS_cortex_mx_ee_cpu.inc ****   register EE_TYPEISR2PRIO prio = 0;
 374:Generated_Source\PSoC5/ErikaOS_cortex_mx_ee_cpu.inc **** 
 375:Generated_Source\PSoC5/ErikaOS_cortex_mx_ee_cpu.inc ****   if (vectact > EE_CORTEX_MX_SYSTICK_EXC_NUM) {
  99              		.loc 2 375 0
 100 0016 0F2B     		cmp	r3, #15
 101 0018 10D9     		bls	.L4
 376:Generated_Source\PSoC5/ErikaOS_cortex_mx_ee_cpu.inc ****     vectact -= EE_CORTEX_MX_SYSTICK_EXC_NUM + 1;
 102              		.loc 2 376 0
 103 001a 103B     		subs	r3, r3, #16
 104              	.LVL4:
ARM GAS  C:\Users\zakis\AppData\Local\Temp\ccd2W9SZ.s 			page 10


 377:Generated_Source\PSoC5/ErikaOS_cortex_mx_ee_cpu.inc ****     prio = NVIC_GET_PRI(vectact);
 105              		.loc 2 377 0
 106 001c 23F00302 		bic	r2, r3, #3
 107 0020 02F16042 		add	r2, r2, #-536870912
 108 0024 02F56442 		add	r2, r2, #58368
 109 0028 1168     		ldr	r1, [r2]
 110 002a DB00     		lsls	r3, r3, #3
 111              	.LVL5:
 112 002c 03F01803 		and	r3, r3, #24
 113 0030 E022     		movs	r2, #224
 114 0032 9A40     		lsls	r2, r2, r3
 115 0034 0A40     		ands	r2, r2, r1
 116 0036 22FA03F3 		lsr	r3, r2, r3
 117              	.LVL6:
 118 003a 06E0     		b	.L5
 119              	.LVL7:
 120              	.L4:
 378:Generated_Source\PSoC5/ErikaOS_cortex_mx_ee_cpu.inc ****   }
 379:Generated_Source\PSoC5/ErikaOS_cortex_mx_ee_cpu.inc **** #ifdef	__USE_SYSTICK__
 380:Generated_Source\PSoC5/ErikaOS_cortex_mx_ee_cpu.inc ****   else if (vectact == EE_CORTEX_MX_SYSTICK_EXC_NUM) {
 121              		.loc 2 380 0
 122 003c 0F2B     		cmp	r3, #15
 123 003e 03D1     		bne	.L8
 381:Generated_Source\PSoC5/ErikaOS_cortex_mx_ee_cpu.inc ****     prio = NVIC_SYS_PRI3_R >> NVIC_SYS_PRI3_TICK_S;
 124              		.loc 2 381 0
 125 0040 134B     		ldr	r3, .L9+4
 126              	.LVL8:
 127 0042 1B68     		ldr	r3, [r3]
 128 0044 1B0E     		lsrs	r3, r3, #24
 129              	.LVL9:
 130 0046 00E0     		b	.L5
 131              	.LVL10:
 132              	.L8:
 373:Generated_Source\PSoC5/ErikaOS_cortex_mx_ee_cpu.inc **** 
 133              		.loc 2 373 0
 134 0048 0023     		movs	r3, #0
 135              	.LVL11:
 136              	.L5:
 137              	.LBE181:
 138              	.LBE180:
 139              	.LBB182:
 140              	.LBB183:
 358:Generated_Source\PSoC5/ErikaOS_cortex_mx_ee_cpu.inc **** #else
 141              		.loc 2 358 0
 142              		.syntax unified
 143              	@ 358 "Generated_Source\PSoC5/ErikaOS_cortex_mx_ee_cpu.inc" 1
 144 004a 83F31188 		MSR BASEPRI, r3
 145              	@ 0 "" 2
 146              		.thumb
 147              		.syntax unified
 148              	.LBE183:
 149              	.LBE182:
 150              	.LBB184:
 151              	.LBB185:
 152              		.file 3 "Generated_Source\\PSoC5/ErikaOS_common_ee_irqstub.inc"
   1:Generated_Source\PSoC5/ErikaOS_common_ee_irqstub.inc **** /* ###*B*###
   2:Generated_Source\PSoC5/ErikaOS_common_ee_irqstub.inc ****  * ERIKA Enterprise - a tiny RTOS for small microcontrollers
ARM GAS  C:\Users\zakis\AppData\Local\Temp\ccd2W9SZ.s 			page 11


   3:Generated_Source\PSoC5/ErikaOS_common_ee_irqstub.inc ****  *
   4:Generated_Source\PSoC5/ErikaOS_common_ee_irqstub.inc ****  * Copyright (C) 2002-2010  Evidence Srl
   5:Generated_Source\PSoC5/ErikaOS_common_ee_irqstub.inc ****  *
   6:Generated_Source\PSoC5/ErikaOS_common_ee_irqstub.inc ****  * This file is part of ERIKA Enterprise.
   7:Generated_Source\PSoC5/ErikaOS_common_ee_irqstub.inc ****  *
   8:Generated_Source\PSoC5/ErikaOS_common_ee_irqstub.inc ****  * ERIKA Enterprise is free software; you can redistribute it
   9:Generated_Source\PSoC5/ErikaOS_common_ee_irqstub.inc ****  * and/or modify it under the terms of the GNU General Public License
  10:Generated_Source\PSoC5/ErikaOS_common_ee_irqstub.inc ****  * version 2 as published by the Free Software Foundation,
  11:Generated_Source\PSoC5/ErikaOS_common_ee_irqstub.inc ****  * (with a special exception described below).
  12:Generated_Source\PSoC5/ErikaOS_common_ee_irqstub.inc ****  *
  13:Generated_Source\PSoC5/ErikaOS_common_ee_irqstub.inc ****  * Linking this code statically or dynamically with other modules is
  14:Generated_Source\PSoC5/ErikaOS_common_ee_irqstub.inc ****  * making a combined work based on this code.  Thus, the terms and
  15:Generated_Source\PSoC5/ErikaOS_common_ee_irqstub.inc ****  * conditions of the GNU General Public License cover the whole
  16:Generated_Source\PSoC5/ErikaOS_common_ee_irqstub.inc ****  * combination.
  17:Generated_Source\PSoC5/ErikaOS_common_ee_irqstub.inc ****  *
  18:Generated_Source\PSoC5/ErikaOS_common_ee_irqstub.inc ****  * As a special exception, the copyright holders of this library give you
  19:Generated_Source\PSoC5/ErikaOS_common_ee_irqstub.inc ****  * permission to link this code with independent modules to produce an
  20:Generated_Source\PSoC5/ErikaOS_common_ee_irqstub.inc ****  * executable, regardless of the license terms of these independent
  21:Generated_Source\PSoC5/ErikaOS_common_ee_irqstub.inc ****  * modules, and to copy and distribute the resulting executable under
  22:Generated_Source\PSoC5/ErikaOS_common_ee_irqstub.inc ****  * terms of your choice, provided that you also meet, for each linked
  23:Generated_Source\PSoC5/ErikaOS_common_ee_irqstub.inc ****  * independent module, the terms and conditions of the license of that
  24:Generated_Source\PSoC5/ErikaOS_common_ee_irqstub.inc ****  * module.  An independent module is a module which is not derived from
  25:Generated_Source\PSoC5/ErikaOS_common_ee_irqstub.inc ****  * or based on this library.  If you modify this code, you may extend
  26:Generated_Source\PSoC5/ErikaOS_common_ee_irqstub.inc ****  * this exception to your version of the code, but you are not
  27:Generated_Source\PSoC5/ErikaOS_common_ee_irqstub.inc ****  * obligated to do so.  If you do not wish to do so, delete this
  28:Generated_Source\PSoC5/ErikaOS_common_ee_irqstub.inc ****  * exception statement from your version.
  29:Generated_Source\PSoC5/ErikaOS_common_ee_irqstub.inc ****  *
  30:Generated_Source\PSoC5/ErikaOS_common_ee_irqstub.inc ****  * ERIKA Enterprise is distributed in the hope that it will be
  31:Generated_Source\PSoC5/ErikaOS_common_ee_irqstub.inc ****  * useful, but WITHOUT ANY WARRANTY; without even the implied warranty
  32:Generated_Source\PSoC5/ErikaOS_common_ee_irqstub.inc ****  * of MERCHANTABILITY or FITNESS FOR A PARTICULAR PURPOSE.  See the
  33:Generated_Source\PSoC5/ErikaOS_common_ee_irqstub.inc ****  * GNU General Public License version 2 for more details.
  34:Generated_Source\PSoC5/ErikaOS_common_ee_irqstub.inc ****  *
  35:Generated_Source\PSoC5/ErikaOS_common_ee_irqstub.inc ****  * You should have received a copy of the GNU General Public License
  36:Generated_Source\PSoC5/ErikaOS_common_ee_irqstub.inc ****  * version 2 along with ERIKA Enterprise; if not, write to the
  37:Generated_Source\PSoC5/ErikaOS_common_ee_irqstub.inc ****  * Free Software Foundation, Inc., 51 Franklin Street, Fifth Floor,
  38:Generated_Source\PSoC5/ErikaOS_common_ee_irqstub.inc ****  * Boston, MA 02110-1301 USA.
  39:Generated_Source\PSoC5/ErikaOS_common_ee_irqstub.inc ****  * ###*E*### */
  40:Generated_Source\PSoC5/ErikaOS_common_ee_irqstub.inc **** 
  41:Generated_Source\PSoC5/ErikaOS_common_ee_irqstub.inc **** /*
  42:Generated_Source\PSoC5/ErikaOS_common_ee_irqstub.inc ****  * Some IRQ-related stuff.
  43:Generated_Source\PSoC5/ErikaOS_common_ee_irqstub.inc ****  * Author: 2009-2010,  Bernardo  Dal Seno
  44:Generated_Source\PSoC5/ErikaOS_common_ee_irqstub.inc ****  */
  45:Generated_Source\PSoC5/ErikaOS_common_ee_irqstub.inc **** 
  46:Generated_Source\PSoC5/ErikaOS_common_ee_irqstub.inc **** /*
  47:Generated_Source\PSoC5/ErikaOS_common_ee_irqstub.inc ****  * PSoC Port and API Generation
  48:Generated_Source\PSoC5/ErikaOS_common_ee_irqstub.inc ****  * Carlos Fernando Meier Martinez
  49:Generated_Source\PSoC5/ErikaOS_common_ee_irqstub.inc ****  * Hochschule Darmstadt, Germany. 2017.
  50:Generated_Source\PSoC5/ErikaOS_common_ee_irqstub.inc ****  */
  51:Generated_Source\PSoC5/ErikaOS_common_ee_irqstub.inc **** 
  52:Generated_Source\PSoC5/ErikaOS_common_ee_irqstub.inc **** /*******************************************************************************
  53:Generated_Source\PSoC5/ErikaOS_common_ee_irqstub.inc ****  *                        !!!WARNING!!!
  54:Generated_Source\PSoC5/ErikaOS_common_ee_irqstub.inc ****  * This header depends on "cpu/common/inc/ee_context.inc" or your own
  55:Generated_Source\PSoC5/ErikaOS_common_ee_irqstub.inc ****  * implementation of the same. You should include it file before including this
  56:Generated_Source\PSoC5/ErikaOS_common_ee_irqstub.inc ****  * file
  57:Generated_Source\PSoC5/ErikaOS_common_ee_irqstub.inc ****  ******************************************************************************/
  58:Generated_Source\PSoC5/ErikaOS_common_ee_irqstub.inc **** 
  59:Generated_Source\PSoC5/ErikaOS_common_ee_irqstub.inc **** #ifndef PKG_CPU_COMMON_INC_EE_IRQSTUB_H
ARM GAS  C:\Users\zakis\AppData\Local\Temp\ccd2W9SZ.s 			page 12


  60:Generated_Source\PSoC5/ErikaOS_common_ee_irqstub.inc **** #define PKG_CPU_COMMON_INC_EE_IRQSTUB_H
  61:Generated_Source\PSoC5/ErikaOS_common_ee_irqstub.inc **** 
  62:Generated_Source\PSoC5/ErikaOS_common_ee_irqstub.inc **** /* this bring EE_IRQ_nesting_level definition */
  63:Generated_Source\PSoC5/ErikaOS_common_ee_irqstub.inc **** #include "ErikaOS_common_ee_primitives.inc"
  64:Generated_Source\PSoC5/ErikaOS_common_ee_irqstub.inc **** 
  65:Generated_Source\PSoC5/ErikaOS_common_ee_irqstub.inc **** /* True if we are inside an interrupt-serving routine */
  66:Generated_Source\PSoC5/ErikaOS_common_ee_irqstub.inc **** __INLINE__ EE_TYPEBOOL  EE_is_inside_ISR_call( void )
  67:Generated_Source\PSoC5/ErikaOS_common_ee_irqstub.inc **** {
  68:Generated_Source\PSoC5/ErikaOS_common_ee_irqstub.inc ****   return (EE_IRQ_nesting_level > 0U);
  69:Generated_Source\PSoC5/ErikaOS_common_ee_irqstub.inc **** }
  70:Generated_Source\PSoC5/ErikaOS_common_ee_irqstub.inc **** 
  71:Generated_Source\PSoC5/ErikaOS_common_ee_irqstub.inc **** 
  72:Generated_Source\PSoC5/ErikaOS_common_ee_irqstub.inc **** /* EE_decrement_IRQ_nesting_level() and EE_increment_IRQ_nesting_level() are
  73:Generated_Source\PSoC5/ErikaOS_common_ee_irqstub.inc ****  * used to keep track of the current IRQ nesting level.
  74:Generated_Source\PSoC5/ErikaOS_common_ee_irqstub.inc ****  * EE_std_enableIRQ_nested() and EE_std_disableIRQ_nested() are used to control
  75:Generated_Source\PSoC5/ErikaOS_common_ee_irqstub.inc ****  * when IRQ nesting is enabled.
  76:Generated_Source\PSoC5/ErikaOS_common_ee_irqstub.inc ****  */
  77:Generated_Source\PSoC5/ErikaOS_common_ee_irqstub.inc **** #if defined(__AS_SC4__)
  78:Generated_Source\PSoC5/ErikaOS_common_ee_irqstub.inc **** /* For SC4 the nesting level is updated inside the prestub and postub */
  79:Generated_Source\PSoC5/ErikaOS_common_ee_irqstub.inc **** __INLINE__ void  EE_decrement_IRQ_nesting_level(void) {}
  80:Generated_Source\PSoC5/ErikaOS_common_ee_irqstub.inc **** __INLINE__ void  EE_increment_IRQ_nesting_level(void) {}
  81:Generated_Source\PSoC5/ErikaOS_common_ee_irqstub.inc **** __INLINE__ void  EE_std_enableIRQ_nested(void) {}
  82:Generated_Source\PSoC5/ErikaOS_common_ee_irqstub.inc **** __INLINE__ void  EE_std_disableIRQ_nested(void) {}
  83:Generated_Source\PSoC5/ErikaOS_common_ee_irqstub.inc **** #elif defined(__ALLOW_NESTED_IRQ__)
  84:Generated_Source\PSoC5/ErikaOS_common_ee_irqstub.inc **** __INLINE__ void  EE_decrement_IRQ_nesting_level(void) { --EE_IRQ_nesting_level; }
  85:Generated_Source\PSoC5/ErikaOS_common_ee_irqstub.inc **** __INLINE__ void  EE_increment_IRQ_nesting_level(void) { ++EE_IRQ_nesting_level; }
 153              		.loc 3 85 0
 154 004e 114A     		ldr	r2, .L9+8
 155 0050 1368     		ldr	r3, [r2]
 156 0052 0133     		adds	r3, r3, #1
 157 0054 1360     		str	r3, [r2]
 158              	.LBE185:
 159              	.LBE184:
  30:source\asw/main.c **** {
 160              		.loc 1 30 0
 161 0056 012B     		cmp	r3, #1
 162 0058 01D1     		bne	.L6
  30:source\asw/main.c **** {
 163              		.loc 1 30 0 is_stmt 0 discriminator 1
 164 005a FFF7FEFF 		bl	EE_cortex_mx_change_IRQ_stack
 165              	.LVL12:
 166              	.L6:
 167              	.LBB186:
 168              	.LBB187:
 191:Generated_Source\PSoC5/ErikaOS_cortex_mx_ee_cpu.inc **** #endif	/* !__KEIL__ */
 169              		.loc 2 191 0 is_stmt 1 discriminator 3
 170              		.syntax unified
 171              	@ 191 "Generated_Source\PSoC5/ErikaOS_cortex_mx_ee_cpu.inc" 1
 172 005e 62B6     		cpsie i
 173              	@ 0 "" 2
 174              		.thumb
 175              		.syntax unified
 176              	.LBE187:
 177              	.LBE186:
  30:source\asw/main.c **** {
 178              		.loc 1 30 0 discriminator 3
 179 0060 FFF7FEFF 		bl	ISR2_systick_handler
ARM GAS  C:\Users\zakis\AppData\Local\Temp\ccd2W9SZ.s 			page 13


 180              	.LVL13:
 181              	.LBB188:
 182              	.LBB189:
 211:Generated_Source\PSoC5/ErikaOS_cortex_mx_ee_cpu.inc **** #endif	/* !__KEIL__ */
 183              		.loc 2 211 0 discriminator 3
 184              		.syntax unified
 185              	@ 211 "Generated_Source\PSoC5/ErikaOS_cortex_mx_ee_cpu.inc" 1
 186 0064 72B6     		cpsid i
 187              	@ 0 "" 2
 188              	.LVL14:
 189              		.thumb
 190              		.syntax unified
 191              	.LBE189:
 192              	.LBE188:
 193              	.LBB190:
 194              	.LBB191:
 358:Generated_Source\PSoC5/ErikaOS_cortex_mx_ee_cpu.inc **** #else
 195              		.loc 2 358 0 discriminator 3
 196              		.syntax unified
 197              	@ 358 "Generated_Source\PSoC5/ErikaOS_cortex_mx_ee_cpu.inc" 1
 198 0066 84F31188 		MSR BASEPRI, r4
 199              	@ 0 "" 2
 200              	.LVL15:
 201              		.thumb
 202              		.syntax unified
 203              	.LBE191:
 204              	.LBE190:
 205              	.LBB192:
 206              	.LBB193:
  86:Generated_Source\PSoC5/ErikaOS_common_ee_irqstub.inc **** /*  EE_std_enableIRQ_nested() and EE_std_disableIRQ_nested() must be defined in
  87:Generated_Source\PSoC5/ErikaOS_common_ee_irqstub.inc ****  *  the platform-dependent part, as they dependend on the particular way
  88:Generated_Source\PSoC5/ErikaOS_common_ee_irqstub.inc ****  *  interrupts are handled by the CPU. */
  89:Generated_Source\PSoC5/ErikaOS_common_ee_irqstub.inc **** #else
  90:Generated_Source\PSoC5/ErikaOS_common_ee_irqstub.inc **** __INLINE__ void  EE_decrement_IRQ_nesting_level(void) { EE_IRQ_nesting_level = 0U; }
  91:Generated_Source\PSoC5/ErikaOS_common_ee_irqstub.inc **** __INLINE__ void  EE_increment_IRQ_nesting_level(void) { EE_IRQ_nesting_level = 1U; }
  92:Generated_Source\PSoC5/ErikaOS_common_ee_irqstub.inc **** __INLINE__ void  EE_std_enableIRQ_nested(void) {}
  93:Generated_Source\PSoC5/ErikaOS_common_ee_irqstub.inc **** __INLINE__ void  EE_std_disableIRQ_nested(void) {}
  94:Generated_Source\PSoC5/ErikaOS_common_ee_irqstub.inc **** #endif
  95:Generated_Source\PSoC5/ErikaOS_common_ee_irqstub.inc **** 
  96:Generated_Source\PSoC5/ErikaOS_common_ee_irqstub.inc **** #if (defined(__OO_BCC1__)) || (defined(__OO_BCC2__)) || (defined(__OO_ECC1__)) \
  97:Generated_Source\PSoC5/ErikaOS_common_ee_irqstub.inc ****   || (defined(__OO_ECC2__)) || (defined(__AS_SC4__))
  98:Generated_Source\PSoC5/ErikaOS_common_ee_irqstub.inc **** /* Function to be called at the end of a function service interrupt, to execute
  99:Generated_Source\PSoC5/ErikaOS_common_ee_irqstub.inc ****    clean-up specifiend in Autosar standard */
 100:Generated_Source\PSoC5/ErikaOS_common_ee_irqstub.inc **** __INLINE__ void  EE_std_end_IRQ_post_stub(void)
 101:Generated_Source\PSoC5/ErikaOS_common_ee_irqstub.inc **** {
 102:Generated_Source\PSoC5/ErikaOS_common_ee_irqstub.inc ****   EE_IRQ_end_post_stub();
 207              		.loc 3 102 0 discriminator 3
 208 006a FFF7FEFF 		bl	EE_IRQ_end_post_stub
 209              	.LVL16:
 210              	.LBE193:
 211              	.LBE192:
 212              	.LBB194:
 213              	.LBB195:
  84:Generated_Source\PSoC5/ErikaOS_common_ee_irqstub.inc **** __INLINE__ void  EE_increment_IRQ_nesting_level(void) { ++EE_IRQ_nesting_level; }
 214              		.loc 3 84 0 discriminator 3
 215 006e 094A     		ldr	r2, .L9+8
 216 0070 1368     		ldr	r3, [r2]
ARM GAS  C:\Users\zakis\AppData\Local\Temp\ccd2W9SZ.s 			page 14


 217 0072 013B     		subs	r3, r3, #1
 218 0074 1360     		str	r3, [r2]
 219              	.LBE195:
 220              	.LBE194:
  30:source\asw/main.c **** {
 221              		.loc 1 30 0 discriminator 3
 222 0076 1BB9     		cbnz	r3, .L7
  30:source\asw/main.c **** {
 223              		.loc 1 30 0 is_stmt 0 discriminator 4
 224 0078 FFF7FEFF 		bl	EE_cortex_mx_change_IRQ_stack_back
 225              	.LVL17:
 226              	.LBB196:
 227              	.LBB197:
 228              		.file 4 "Generated_Source\\PSoC5/ErikaOS_cortex_mx_ee_irq_cng_cont.inc"
   1:Generated_Source\PSoC5/ErikaOS_cortex_mx_ee_irq_cng_cont.inc **** /* ###*B*###
   2:Generated_Source\PSoC5/ErikaOS_cortex_mx_ee_irq_cng_cont.inc ****  * ERIKA Enterprise - a tiny RTOS for small microcontrollers
   3:Generated_Source\PSoC5/ErikaOS_cortex_mx_ee_irq_cng_cont.inc ****  *
   4:Generated_Source\PSoC5/ErikaOS_cortex_mx_ee_irq_cng_cont.inc ****  * Copyright (C) 2002-2011  Evidence Srl
   5:Generated_Source\PSoC5/ErikaOS_cortex_mx_ee_irq_cng_cont.inc ****  *
   6:Generated_Source\PSoC5/ErikaOS_cortex_mx_ee_irq_cng_cont.inc ****  * This file is part of ERIKA Enterprise.
   7:Generated_Source\PSoC5/ErikaOS_cortex_mx_ee_irq_cng_cont.inc ****  *
   8:Generated_Source\PSoC5/ErikaOS_cortex_mx_ee_irq_cng_cont.inc ****  * ERIKA Enterprise is free software; you can redistribute it
   9:Generated_Source\PSoC5/ErikaOS_cortex_mx_ee_irq_cng_cont.inc ****  * and/or modify it under the terms of the GNU General Public License
  10:Generated_Source\PSoC5/ErikaOS_cortex_mx_ee_irq_cng_cont.inc ****  * version 2 as published by the Free Software Foundation, 
  11:Generated_Source\PSoC5/ErikaOS_cortex_mx_ee_irq_cng_cont.inc ****  * (with a special exception described below).
  12:Generated_Source\PSoC5/ErikaOS_cortex_mx_ee_irq_cng_cont.inc ****  *
  13:Generated_Source\PSoC5/ErikaOS_cortex_mx_ee_irq_cng_cont.inc ****  * Linking this code statically or dynamically with other modules is
  14:Generated_Source\PSoC5/ErikaOS_cortex_mx_ee_irq_cng_cont.inc ****  * making a combined work based on this code.  Thus, the terms and
  15:Generated_Source\PSoC5/ErikaOS_cortex_mx_ee_irq_cng_cont.inc ****  * conditions of the GNU General Public License cover the whole
  16:Generated_Source\PSoC5/ErikaOS_cortex_mx_ee_irq_cng_cont.inc ****  * combination.
  17:Generated_Source\PSoC5/ErikaOS_cortex_mx_ee_irq_cng_cont.inc ****  *
  18:Generated_Source\PSoC5/ErikaOS_cortex_mx_ee_irq_cng_cont.inc ****  * As a special exception, the copyright holders of this library give you
  19:Generated_Source\PSoC5/ErikaOS_cortex_mx_ee_irq_cng_cont.inc ****  * permission to link this code with independent modules to produce an
  20:Generated_Source\PSoC5/ErikaOS_cortex_mx_ee_irq_cng_cont.inc ****  * executable, regardless of the license terms of these independent
  21:Generated_Source\PSoC5/ErikaOS_cortex_mx_ee_irq_cng_cont.inc ****  * modules, and to copy and distribute the resulting executable under
  22:Generated_Source\PSoC5/ErikaOS_cortex_mx_ee_irq_cng_cont.inc ****  * terms of your choice, provided that you also meet, for each linked
  23:Generated_Source\PSoC5/ErikaOS_cortex_mx_ee_irq_cng_cont.inc ****  * independent module, the terms and conditions of the license of that
  24:Generated_Source\PSoC5/ErikaOS_cortex_mx_ee_irq_cng_cont.inc ****  * module.  An independent module is a module which is not derived from
  25:Generated_Source\PSoC5/ErikaOS_cortex_mx_ee_irq_cng_cont.inc ****  * or based on this library.  If you modify this code, you may extend
  26:Generated_Source\PSoC5/ErikaOS_cortex_mx_ee_irq_cng_cont.inc ****  * this exception to your version of the code, but you are not
  27:Generated_Source\PSoC5/ErikaOS_cortex_mx_ee_irq_cng_cont.inc ****  * obligated to do so.  If you do not wish to do so, delete this
  28:Generated_Source\PSoC5/ErikaOS_cortex_mx_ee_irq_cng_cont.inc ****  * exception statement from your version.
  29:Generated_Source\PSoC5/ErikaOS_cortex_mx_ee_irq_cng_cont.inc ****  *
  30:Generated_Source\PSoC5/ErikaOS_cortex_mx_ee_irq_cng_cont.inc ****  * ERIKA Enterprise is distributed in the hope that it will be
  31:Generated_Source\PSoC5/ErikaOS_cortex_mx_ee_irq_cng_cont.inc ****  * useful, but WITHOUT ANY WARRANTY; without even the implied warranty
  32:Generated_Source\PSoC5/ErikaOS_cortex_mx_ee_irq_cng_cont.inc ****  * of MERCHANTABILITY or FITNESS FOR A PARTICULAR PURPOSE.  See the
  33:Generated_Source\PSoC5/ErikaOS_cortex_mx_ee_irq_cng_cont.inc ****  * GNU General Public License version 2 for more details.
  34:Generated_Source\PSoC5/ErikaOS_cortex_mx_ee_irq_cng_cont.inc ****  *
  35:Generated_Source\PSoC5/ErikaOS_cortex_mx_ee_irq_cng_cont.inc ****  * You should have received a copy of the GNU General Public License
  36:Generated_Source\PSoC5/ErikaOS_cortex_mx_ee_irq_cng_cont.inc ****  * version 2 along with ERIKA Enterprise; if not, write to the
  37:Generated_Source\PSoC5/ErikaOS_cortex_mx_ee_irq_cng_cont.inc ****  * Free Software Foundation, Inc., 51 Franklin Street, Fifth Floor,
  38:Generated_Source\PSoC5/ErikaOS_cortex_mx_ee_irq_cng_cont.inc ****  * Boston, MA 02110-1301 USA.
  39:Generated_Source\PSoC5/ErikaOS_cortex_mx_ee_irq_cng_cont.inc ****  * ###*E*### */
  40:Generated_Source\PSoC5/ErikaOS_cortex_mx_ee_irq_cng_cont.inc **** 
  41:Generated_Source\PSoC5/ErikaOS_cortex_mx_ee_irq_cng_cont.inc ****  /** 
  42:Generated_Source\PSoC5/ErikaOS_cortex_mx_ee_irq_cng_cont.inc **** 	
  43:Generated_Source\PSoC5/ErikaOS_cortex_mx_ee_irq_cng_cont.inc **** 	@file	ee_irq_cng_cont.h
ARM GAS  C:\Users\zakis\AppData\Local\Temp\ccd2W9SZ.s 			page 15


  44:Generated_Source\PSoC5/ErikaOS_cortex_mx_ee_irq_cng_cont.inc **** 	@brief	Function active the context change interrupt
  45:Generated_Source\PSoC5/ErikaOS_cortex_mx_ee_irq_cng_cont.inc **** 	@author	Gianluca Franchino
  46:Generated_Source\PSoC5/ErikaOS_cortex_mx_ee_irq_cng_cont.inc **** 	@author	Giuseppe Serano
  47:Generated_Source\PSoC5/ErikaOS_cortex_mx_ee_irq_cng_cont.inc **** 	@date	2012
  48:Generated_Source\PSoC5/ErikaOS_cortex_mx_ee_irq_cng_cont.inc **** */ 
  49:Generated_Source\PSoC5/ErikaOS_cortex_mx_ee_irq_cng_cont.inc ****     
  50:Generated_Source\PSoC5/ErikaOS_cortex_mx_ee_irq_cng_cont.inc **** /*
  51:Generated_Source\PSoC5/ErikaOS_cortex_mx_ee_irq_cng_cont.inc ****  * PSoC Port and API Generation
  52:Generated_Source\PSoC5/ErikaOS_cortex_mx_ee_irq_cng_cont.inc ****  * Carlos Fernando Meier Martinez
  53:Generated_Source\PSoC5/ErikaOS_cortex_mx_ee_irq_cng_cont.inc ****  * Hochschule Darmstadt, Germany. 2017.
  54:Generated_Source\PSoC5/ErikaOS_cortex_mx_ee_irq_cng_cont.inc ****  */
  55:Generated_Source\PSoC5/ErikaOS_cortex_mx_ee_irq_cng_cont.inc **** 
  56:Generated_Source\PSoC5/ErikaOS_cortex_mx_ee_irq_cng_cont.inc **** #ifndef __INCLUDE_CORTEX_MX_IRQ_CNG_CONTEXT_H__
  57:Generated_Source\PSoC5/ErikaOS_cortex_mx_ee_irq_cng_cont.inc **** #define __INCLUDE_CORTEX_MX_IRQ_CNG_CONTEXT_H__
  58:Generated_Source\PSoC5/ErikaOS_cortex_mx_ee_irq_cng_cont.inc **** 
  59:Generated_Source\PSoC5/ErikaOS_cortex_mx_ee_irq_cng_cont.inc **** #ifdef __GNU__
  60:Generated_Source\PSoC5/ErikaOS_cortex_mx_ee_irq_cng_cont.inc **** #include "ErikaOS_common_ee_compiler_gcc.inc"
  61:Generated_Source\PSoC5/ErikaOS_cortex_mx_ee_irq_cng_cont.inc **** #endif
  62:Generated_Source\PSoC5/ErikaOS_cortex_mx_ee_irq_cng_cont.inc **** 
  63:Generated_Source\PSoC5/ErikaOS_cortex_mx_ee_irq_cng_cont.inc **** /* Implemented in ee_<compiler>_change_context_isr.s */
  64:Generated_Source\PSoC5/ErikaOS_cortex_mx_ee_irq_cng_cont.inc **** extern void EE_switch_context(void);
  65:Generated_Source\PSoC5/ErikaOS_cortex_mx_ee_irq_cng_cont.inc **** 
  66:Generated_Source\PSoC5/ErikaOS_cortex_mx_ee_irq_cng_cont.inc **** __INLINE__ void  EE_cortex_mx_IRQ_active_change_context(void)
  67:Generated_Source\PSoC5/ErikaOS_cortex_mx_ee_irq_cng_cont.inc **** {
  68:Generated_Source\PSoC5/ErikaOS_cortex_mx_ee_irq_cng_cont.inc **** 	EE_switch_context();
 229              		.loc 4 68 0 is_stmt 1 discriminator 4
 230 007c FFF7FEFF 		bl	EE_switch_context
 231              	.LVL18:
 232              	.L7:
 233              	.LBE197:
 234              	.LBE196:
 235              	.LBB198:
 236              	.LBB199:
 191:Generated_Source\PSoC5/ErikaOS_cortex_mx_ee_cpu.inc **** #endif	/* !__KEIL__ */
 237              		.loc 2 191 0 discriminator 6
 238              		.syntax unified
 239              	@ 191 "Generated_Source\PSoC5/ErikaOS_cortex_mx_ee_cpu.inc" 1
 240 0080 62B6     		cpsie i
 241              	@ 0 "" 2
 242              		.thumb
 243              		.syntax unified
 244              	.LBE199:
 245              	.LBE198:
  30:source\asw/main.c **** {
 246              		.loc 1 30 0 discriminator 6
 247 0082 BDE81940 		pop	{r0, r3, r4, lr}
 248              		.cfi_restore 14
 249              		.cfi_restore 4
 250              		.cfi_restore 3
 251              		.cfi_restore 0
 252              		.cfi_def_cfa_offset 0
 253 0086 8546     		mov	sp, r0
 254 0088 7047     		bx	lr
 255              	.L10:
 256 008a 00BF     		.align	2
 257              	.L9:
 258 008c 04ED00E0 		.word	-536810236
ARM GAS  C:\Users\zakis\AppData\Local\Temp\ccd2W9SZ.s 			page 16


 259 0090 20ED00E0 		.word	-536810208
 260 0094 00000000 		.word	EE_IRQ_nesting_level
 261              		.cfi_endproc
 262              	.LFE167:
 263              		.size	systick_handler, .-systick_handler
 264              		.section	.text.main,"ax",%progbits
 265              		.align	2
 266              		.global	main
 267              		.thumb
 268              		.thumb_func
 269              		.type	main, %function
 270              	main:
 271              	.LFB169:
  33:source\asw/main.c **** }
  34:source\asw/main.c **** 
  35:source\asw/main.c **** int main()
  36:source\asw/main.c **** {
 272              		.loc 1 36 0
 273              		.cfi_startproc
 274              		@ Volatile: function does not return.
 275              		@ args = 0, pretend = 0, frame = 0
 276              		@ frame_needed = 0, uses_anonymous_args = 0
 277 0000 08B5     		push	{r3, lr}
 278              		.cfi_def_cfa_offset 8
 279              		.cfi_offset 3, -8
 280              		.cfi_offset 14, -4
  37:source\asw/main.c ****     CyGlobalIntEnable; /* Enable global interrupts. */
 281              		.loc 1 37 0
 282              		.syntax unified
 283              	@ 37 "source\asw\main.c" 1
 284 0002 62B6     		CPSIE   i
 285              	@ 0 "" 2
 286              	.LVL19:
 287              		.thumb
 288              		.syntax unified
 289              	.LBB200:
 290              	.LBB201:
 291              		.file 5 "Generated_Source\\PSoC5/ErikaOS_cortex_mx_ee_systick.inc"
   1:Generated_Source\PSoC5/ErikaOS_cortex_mx_ee_systick.inc **** /* ###*B*###
   2:Generated_Source\PSoC5/ErikaOS_cortex_mx_ee_systick.inc ****  * ERIKA Enterprise - a tiny RTOS for small microcontrollers
   3:Generated_Source\PSoC5/ErikaOS_cortex_mx_ee_systick.inc ****  *
   4:Generated_Source\PSoC5/ErikaOS_cortex_mx_ee_systick.inc ****  * Copyright (C) 2002-2012  Evidence Srl
   5:Generated_Source\PSoC5/ErikaOS_cortex_mx_ee_systick.inc ****  *
   6:Generated_Source\PSoC5/ErikaOS_cortex_mx_ee_systick.inc ****  * This file is part of ERIKA Enterprise.
   7:Generated_Source\PSoC5/ErikaOS_cortex_mx_ee_systick.inc ****  *
   8:Generated_Source\PSoC5/ErikaOS_cortex_mx_ee_systick.inc ****  * ERIKA Enterprise is free software; you can redistribute it
   9:Generated_Source\PSoC5/ErikaOS_cortex_mx_ee_systick.inc ****  * and/or modify it under the terms of the GNU General Public License
  10:Generated_Source\PSoC5/ErikaOS_cortex_mx_ee_systick.inc ****  * version 2 as published by the Free Software Foundation,
  11:Generated_Source\PSoC5/ErikaOS_cortex_mx_ee_systick.inc ****  * (with a special exception described below).
  12:Generated_Source\PSoC5/ErikaOS_cortex_mx_ee_systick.inc ****  *
  13:Generated_Source\PSoC5/ErikaOS_cortex_mx_ee_systick.inc ****  * Linking this code statically or dynamically with other modules is
  14:Generated_Source\PSoC5/ErikaOS_cortex_mx_ee_systick.inc ****  * making a combined work based on this code.  Thus, the terms and
  15:Generated_Source\PSoC5/ErikaOS_cortex_mx_ee_systick.inc ****  * conditions of the GNU General Public License cover the whole
  16:Generated_Source\PSoC5/ErikaOS_cortex_mx_ee_systick.inc ****  * combination.
  17:Generated_Source\PSoC5/ErikaOS_cortex_mx_ee_systick.inc ****  *
  18:Generated_Source\PSoC5/ErikaOS_cortex_mx_ee_systick.inc ****  * As a special exception, the copyright holders of this library give you
  19:Generated_Source\PSoC5/ErikaOS_cortex_mx_ee_systick.inc ****  * permission to link this code with independent modules to produce an
ARM GAS  C:\Users\zakis\AppData\Local\Temp\ccd2W9SZ.s 			page 17


  20:Generated_Source\PSoC5/ErikaOS_cortex_mx_ee_systick.inc ****  * executable, regardless of the license terms of these independent
  21:Generated_Source\PSoC5/ErikaOS_cortex_mx_ee_systick.inc ****  * modules, and to copy and distribute the resulting executable under
  22:Generated_Source\PSoC5/ErikaOS_cortex_mx_ee_systick.inc ****  * terms of your choice, provided that you also meet, for each linked
  23:Generated_Source\PSoC5/ErikaOS_cortex_mx_ee_systick.inc ****  * independent module, the terms and conditions of the license of that
  24:Generated_Source\PSoC5/ErikaOS_cortex_mx_ee_systick.inc ****  * module.  An independent module is a module which is not derived from
  25:Generated_Source\PSoC5/ErikaOS_cortex_mx_ee_systick.inc ****  * or based on this library.  If you modify this code, you may extend
  26:Generated_Source\PSoC5/ErikaOS_cortex_mx_ee_systick.inc ****  * this exception to your version of the code, but you are not
  27:Generated_Source\PSoC5/ErikaOS_cortex_mx_ee_systick.inc ****  * obligated to do so.  If you do not wish to do so, delete this
  28:Generated_Source\PSoC5/ErikaOS_cortex_mx_ee_systick.inc ****  * exception statement from your version.
  29:Generated_Source\PSoC5/ErikaOS_cortex_mx_ee_systick.inc ****  *
  30:Generated_Source\PSoC5/ErikaOS_cortex_mx_ee_systick.inc ****  * ERIKA Enterprise is distributed in the hope that it will be
  31:Generated_Source\PSoC5/ErikaOS_cortex_mx_ee_systick.inc ****  * useful, but WITHOUT ANY WARRANTY; without even the implied warranty
  32:Generated_Source\PSoC5/ErikaOS_cortex_mx_ee_systick.inc ****  * of MERCHANTABILITY or FITNESS FOR A PARTICULAR PURPOSE.  See the
  33:Generated_Source\PSoC5/ErikaOS_cortex_mx_ee_systick.inc ****  * GNU General Public License version 2 for more details.
  34:Generated_Source\PSoC5/ErikaOS_cortex_mx_ee_systick.inc ****  *
  35:Generated_Source\PSoC5/ErikaOS_cortex_mx_ee_systick.inc ****  * You should have received a copy of the GNU General Public License
  36:Generated_Source\PSoC5/ErikaOS_cortex_mx_ee_systick.inc ****  * version 2 along with ERIKA Enterprise; if not, write to the
  37:Generated_Source\PSoC5/ErikaOS_cortex_mx_ee_systick.inc ****  * Free Software Foundation, Inc., 51 Franklin Street, Fifth Floor,
  38:Generated_Source\PSoC5/ErikaOS_cortex_mx_ee_systick.inc ****  * Boston, MA 02110-1301 USA.
  39:Generated_Source\PSoC5/ErikaOS_cortex_mx_ee_systick.inc ****  * ###*E*### */
  40:Generated_Source\PSoC5/ErikaOS_cortex_mx_ee_systick.inc **** 
  41:Generated_Source\PSoC5/ErikaOS_cortex_mx_ee_systick.inc **** /**
  42:Generated_Source\PSoC5/ErikaOS_cortex_mx_ee_systick.inc ****     @file	ee_systick.h
  43:Generated_Source\PSoC5/ErikaOS_cortex_mx_ee_systick.inc ****     @brief	SysTick system timer driver header file.
  44:Generated_Source\PSoC5/ErikaOS_cortex_mx_ee_systick.inc ****     @author	Giuseppe Serano
  45:Generated_Source\PSoC5/ErikaOS_cortex_mx_ee_systick.inc ****     @date	2012
  46:Generated_Source\PSoC5/ErikaOS_cortex_mx_ee_systick.inc **** 
  47:Generated_Source\PSoC5/ErikaOS_cortex_mx_ee_systick.inc **** **/
  48:Generated_Source\PSoC5/ErikaOS_cortex_mx_ee_systick.inc **** 
  49:Generated_Source\PSoC5/ErikaOS_cortex_mx_ee_systick.inc **** /*
  50:Generated_Source\PSoC5/ErikaOS_cortex_mx_ee_systick.inc ****  * PSoC Port and API Generation
  51:Generated_Source\PSoC5/ErikaOS_cortex_mx_ee_systick.inc ****  * Carlos Fernando Meier Martinez
  52:Generated_Source\PSoC5/ErikaOS_cortex_mx_ee_systick.inc ****  * Hochschule Darmstadt, Germany. 2017.
  53:Generated_Source\PSoC5/ErikaOS_cortex_mx_ee_systick.inc ****  */
  54:Generated_Source\PSoC5/ErikaOS_cortex_mx_ee_systick.inc **** 
  55:Generated_Source\PSoC5/ErikaOS_cortex_mx_ee_systick.inc **** #ifndef	__INCLUDE_CORTEX_MX_SYSTICK_H__
  56:Generated_Source\PSoC5/ErikaOS_cortex_mx_ee_systick.inc **** #define	__INCLUDE_CORTEX_MX_SYSTICK_H__
  57:Generated_Source\PSoC5/ErikaOS_cortex_mx_ee_systick.inc **** 
  58:Generated_Source\PSoC5/ErikaOS_cortex_mx_ee_systick.inc **** #ifdef	__USE_SYSTICK__
  59:Generated_Source\PSoC5/ErikaOS_cortex_mx_ee_systick.inc **** 
  60:Generated_Source\PSoC5/ErikaOS_cortex_mx_ee_systick.inc **** /** error value. No errors happened **/
  61:Generated_Source\PSoC5/ErikaOS_cortex_mx_ee_systick.inc **** #define	EE_SYSTICK_NO_ERRORS	0
  62:Generated_Source\PSoC5/ErikaOS_cortex_mx_ee_systick.inc **** /** error value. Wrong funtion arguments values **/
  63:Generated_Source\PSoC5/ErikaOS_cortex_mx_ee_systick.inc **** #define	EE_SYSTICK_ERR_BAD_ARGS	1
  64:Generated_Source\PSoC5/ErikaOS_cortex_mx_ee_systick.inc **** 
  65:Generated_Source\PSoC5/ErikaOS_cortex_mx_ee_systick.inc **** /**
  66:Generated_Source\PSoC5/ErikaOS_cortex_mx_ee_systick.inc ****     @brief Start SysTick.
  67:Generated_Source\PSoC5/ErikaOS_cortex_mx_ee_systick.inc **** 
  68:Generated_Source\PSoC5/ErikaOS_cortex_mx_ee_systick.inc ****     This will start the SysTick counter.  If an ISR has been defined, it is
  69:Generated_Source\PSoC5/ErikaOS_cortex_mx_ee_systick.inc ****     called when the SysTick counter rolls over.
  70:Generated_Source\PSoC5/ErikaOS_cortex_mx_ee_systick.inc **** 
  71:Generated_Source\PSoC5/ErikaOS_cortex_mx_ee_systick.inc ****     @note Calling this function will cause the SysTick counter to (re)commence
  72:Generated_Source\PSoC5/ErikaOS_cortex_mx_ee_systick.inc ****     counting from its current value.  The counter is not automatically reloaded
  73:Generated_Source\PSoC5/ErikaOS_cortex_mx_ee_systick.inc ****     with the period as specified in a previous call to EE_systick_set_period().
  74:Generated_Source\PSoC5/ErikaOS_cortex_mx_ee_systick.inc ****     If an immediate reload is required, the \b NVIC_ST_CURRENT register must be
  75:Generated_Source\PSoC5/ErikaOS_cortex_mx_ee_systick.inc ****     written to force this.  Any write to this register clears the SysTick
  76:Generated_Source\PSoC5/ErikaOS_cortex_mx_ee_systick.inc ****     counter to 0 and will cause a reload with the supplied period on the next
ARM GAS  C:\Users\zakis\AppData\Local\Temp\ccd2W9SZ.s 			page 18


  77:Generated_Source\PSoC5/ErikaOS_cortex_mx_ee_systick.inc ****     clock.
  78:Generated_Source\PSoC5/ErikaOS_cortex_mx_ee_systick.inc ****  */
  79:Generated_Source\PSoC5/ErikaOS_cortex_mx_ee_systick.inc **** __INLINE__ void  EE_systick_start(void)
  80:Generated_Source\PSoC5/ErikaOS_cortex_mx_ee_systick.inc **** {
  81:Generated_Source\PSoC5/ErikaOS_cortex_mx_ee_systick.inc ****   NVIC_ST_CTRL_R |= NVIC_ST_CTRL_CLK_SRC | NVIC_ST_CTRL_ENABLE;
  82:Generated_Source\PSoC5/ErikaOS_cortex_mx_ee_systick.inc **** }
  83:Generated_Source\PSoC5/ErikaOS_cortex_mx_ee_systick.inc **** 
  84:Generated_Source\PSoC5/ErikaOS_cortex_mx_ee_systick.inc **** /**
  85:Generated_Source\PSoC5/ErikaOS_cortex_mx_ee_systick.inc ****     @brief Stop SysTick.
  86:Generated_Source\PSoC5/ErikaOS_cortex_mx_ee_systick.inc **** 
  87:Generated_Source\PSoC5/ErikaOS_cortex_mx_ee_systick.inc ****     This will stop the SysTick counter.  If an ISR has been defined, it will
  88:Generated_Source\PSoC5/ErikaOS_cortex_mx_ee_systick.inc ****     no longer be called until SysTick is restarted.
  89:Generated_Source\PSoC5/ErikaOS_cortex_mx_ee_systick.inc **** */
  90:Generated_Source\PSoC5/ErikaOS_cortex_mx_ee_systick.inc **** __INLINE__ void  EE_systick_stop(void)
  91:Generated_Source\PSoC5/ErikaOS_cortex_mx_ee_systick.inc **** {
  92:Generated_Source\PSoC5/ErikaOS_cortex_mx_ee_systick.inc ****   NVIC_ST_CTRL_R &= ~(NVIC_ST_CTRL_ENABLE);
  93:Generated_Source\PSoC5/ErikaOS_cortex_mx_ee_systick.inc **** }
  94:Generated_Source\PSoC5/ErikaOS_cortex_mx_ee_systick.inc **** 
  95:Generated_Source\PSoC5/ErikaOS_cortex_mx_ee_systick.inc **** /**
  96:Generated_Source\PSoC5/ErikaOS_cortex_mx_ee_systick.inc ****     @brief Enables the SysTick interrupt.
  97:Generated_Source\PSoC5/ErikaOS_cortex_mx_ee_systick.inc **** 
  98:Generated_Source\PSoC5/ErikaOS_cortex_mx_ee_systick.inc ****     This function will enable the SysTick interrupt, allowing it to be
  99:Generated_Source\PSoC5/ErikaOS_cortex_mx_ee_systick.inc ****     reflected to the processor.
 100:Generated_Source\PSoC5/ErikaOS_cortex_mx_ee_systick.inc **** 
 101:Generated_Source\PSoC5/ErikaOS_cortex_mx_ee_systick.inc ****     @note The SysTick ISR does not need to clear the SysTick interrupt source as
 102:Generated_Source\PSoC5/ErikaOS_cortex_mx_ee_systick.inc ****     this is done automatically by NVIC when the interrupt ISR is called.
 103:Generated_Source\PSoC5/ErikaOS_cortex_mx_ee_systick.inc ****  */
 104:Generated_Source\PSoC5/ErikaOS_cortex_mx_ee_systick.inc **** __INLINE__ void  EE_systick_enable_int()
 105:Generated_Source\PSoC5/ErikaOS_cortex_mx_ee_systick.inc **** {
 106:Generated_Source\PSoC5/ErikaOS_cortex_mx_ee_systick.inc ****   NVIC_ST_CTRL_R |= NVIC_ST_CTRL_INTEN;
 107:Generated_Source\PSoC5/ErikaOS_cortex_mx_ee_systick.inc **** }
 108:Generated_Source\PSoC5/ErikaOS_cortex_mx_ee_systick.inc **** 
 109:Generated_Source\PSoC5/ErikaOS_cortex_mx_ee_systick.inc **** /**
 110:Generated_Source\PSoC5/ErikaOS_cortex_mx_ee_systick.inc ****     @brief Disables the SysTick interrupt.
 111:Generated_Source\PSoC5/ErikaOS_cortex_mx_ee_systick.inc **** 
 112:Generated_Source\PSoC5/ErikaOS_cortex_mx_ee_systick.inc ****     This function will disable the SysTick interrupt, preventing it from being
 113:Generated_Source\PSoC5/ErikaOS_cortex_mx_ee_systick.inc ****     reflected to the processor.
 114:Generated_Source\PSoC5/ErikaOS_cortex_mx_ee_systick.inc ****  */
 115:Generated_Source\PSoC5/ErikaOS_cortex_mx_ee_systick.inc **** __INLINE__ void  EE_systick_disable_int()
 116:Generated_Source\PSoC5/ErikaOS_cortex_mx_ee_systick.inc **** {
 117:Generated_Source\PSoC5/ErikaOS_cortex_mx_ee_systick.inc ****   NVIC_ST_CTRL_R &= ~(NVIC_ST_CTRL_INTEN);
 118:Generated_Source\PSoC5/ErikaOS_cortex_mx_ee_systick.inc **** }
 119:Generated_Source\PSoC5/ErikaOS_cortex_mx_ee_systick.inc **** 
 120:Generated_Source\PSoC5/ErikaOS_cortex_mx_ee_systick.inc **** /**
 121:Generated_Source\PSoC5/ErikaOS_cortex_mx_ee_systick.inc ****     @brief Sets the period of the SysTick counter.
 122:Generated_Source\PSoC5/ErikaOS_cortex_mx_ee_systick.inc **** 
 123:Generated_Source\PSoC5/ErikaOS_cortex_mx_ee_systick.inc ****     @param period is the number of clock ticks in each period of the SysTick
 124:Generated_Source\PSoC5/ErikaOS_cortex_mx_ee_systick.inc ****     counter; must be between 1 and 16,777,216, inclusive. If the \e period is
 125:Generated_Source\PSoC5/ErikaOS_cortex_mx_ee_systick.inc ****     out of range the function returns \b EE_SYSTICK_ERR_BAD_ARGS, else it will
 126:Generated_Source\PSoC5/ErikaOS_cortex_mx_ee_systick.inc ****     returns \b EE_SYSTICK_NO_ERRORS.
 127:Generated_Source\PSoC5/ErikaOS_cortex_mx_ee_systick.inc **** 
 128:Generated_Source\PSoC5/ErikaOS_cortex_mx_ee_systick.inc ****     This function sets the rate at which the SysTick counter wraps; this
 129:Generated_Source\PSoC5/ErikaOS_cortex_mx_ee_systick.inc ****     equates to the number of processor clocks between interrupts.
 130:Generated_Source\PSoC5/ErikaOS_cortex_mx_ee_systick.inc **** 
 131:Generated_Source\PSoC5/ErikaOS_cortex_mx_ee_systick.inc ****     @note Calling this function does not cause the SysTick counter to reload
 132:Generated_Source\PSoC5/ErikaOS_cortex_mx_ee_systick.inc ****     immediately.  If an immediate reload is required, the \b NVIC_ST_CURRENT
 133:Generated_Source\PSoC5/ErikaOS_cortex_mx_ee_systick.inc ****     register must be written.  Any write to this register clears the SysTick
ARM GAS  C:\Users\zakis\AppData\Local\Temp\ccd2W9SZ.s 			page 19


 134:Generated_Source\PSoC5/ErikaOS_cortex_mx_ee_systick.inc ****     counter to 0 and will cause a reload with the \e period supplied here on
 135:Generated_Source\PSoC5/ErikaOS_cortex_mx_ee_systick.inc ****     the next clock after the SysTick is enabled.
 136:Generated_Source\PSoC5/ErikaOS_cortex_mx_ee_systick.inc ****  */
 137:Generated_Source\PSoC5/ErikaOS_cortex_mx_ee_systick.inc **** __INLINE__ EE_UREG  EE_systick_set_period(EE_UREG period)
 138:Generated_Source\PSoC5/ErikaOS_cortex_mx_ee_systick.inc **** {
 139:Generated_Source\PSoC5/ErikaOS_cortex_mx_ee_systick.inc ****   if ((period == NVIC_ST_RELOAD_S) || (period > NVIC_ST_RELOAD_M))
 140:Generated_Source\PSoC5/ErikaOS_cortex_mx_ee_systick.inc ****     return EE_SYSTICK_ERR_BAD_ARGS;
 141:Generated_Source\PSoC5/ErikaOS_cortex_mx_ee_systick.inc **** 
 142:Generated_Source\PSoC5/ErikaOS_cortex_mx_ee_systick.inc ****   NVIC_ST_RELOAD_R = period - 1;
 292              		.loc 5 142 0
 293 0004 45F6BF52 		movw	r2, #23999
 294 0008 054B     		ldr	r3, .L14
 295 000a 1A60     		str	r2, [r3]
 296              	.LVL20:
 297              	.LBE201:
 298              	.LBE200:
 299              	.LBB202:
 300              	.LBB203:
 106:Generated_Source\PSoC5/ErikaOS_cortex_mx_ee_systick.inc **** }
 301              		.loc 5 106 0
 302 000c 054A     		ldr	r2, .L14+4
 303 000e 1368     		ldr	r3, [r2]
 304 0010 43F00203 		orr	r3, r3, #2
 305 0014 1360     		str	r3, [r2]
 306              	.L12:
 307              	.LBE203:
 308              	.LBE202:
  38:source\asw/main.c ****    
  39:source\asw/main.c ****     //Set systick period to 1 ms. Enable the INT and start it.
  40:source\asw/main.c **** 	EE_systick_set_period(MILLISECONDS_TO_TICKS(1, BCLK__BUS_CLK__HZ));
  41:source\asw/main.c **** 	EE_systick_enable_int();
  42:source\asw/main.c ****     
  43:source\asw/main.c ****     // Start Operating System
  44:source\asw/main.c ****     for(;;)	    
  45:source\asw/main.c ****     	StartOS(OSDEFAULTAPPMODE);
 309              		.loc 1 45 0 discriminator 1
 310 0016 0020     		movs	r0, #0
 311 0018 FFF7FEFF 		bl	EE_oo_StartOS
 312              	.LVL21:
 313 001c FBE7     		b	.L12
 314              	.L15:
 315 001e 00BF     		.align	2
 316              	.L14:
 317 0020 14E000E0 		.word	-536813548
 318 0024 10E000E0 		.word	-536813552
 319              		.cfi_endproc
 320              	.LFE169:
 321              		.size	main, .-main
 322              		.section	.text.unhandledException,"ax",%progbits
 323              		.align	2
 324              		.global	unhandledException
 325              		.thumb
 326              		.thumb_func
 327              		.type	unhandledException, %function
 328              	unhandledException:
 329              	.LFB170:
  46:source\asw/main.c **** }
ARM GAS  C:\Users\zakis\AppData\Local\Temp\ccd2W9SZ.s 			page 20


  47:source\asw/main.c **** 
  48:source\asw/main.c **** void unhandledException()
  49:source\asw/main.c **** {
 330              		.loc 1 49 0
 331              		.cfi_startproc
 332              		@ args = 0, pretend = 0, frame = 0
 333              		@ frame_needed = 0, uses_anonymous_args = 0
 334              		@ link register save eliminated.
  50:source\asw/main.c ****     //Ooops, something terrible happened....check the call stack to see how we got here...
  51:source\asw/main.c ****     __asm("bkpt");
 335              		.loc 1 51 0
 336              		.syntax unified
 337              	@ 51 "source\asw\main.c" 1
 338 0000 00BE     		bkpt
 339              	@ 0 "" 2
 340              		.thumb
 341              		.syntax unified
 342 0002 7047     		bx	lr
 343              		.cfi_endproc
 344              	.LFE170:
 345              		.size	unhandledException, .-unhandledException
 346              		.section	.text.Functsk_init,"ax",%progbits
 347              		.align	2
 348              		.global	Functsk_init
 349              		.thumb
 350              		.thumb_func
 351              		.type	Functsk_init, %function
 352              	Functsk_init:
 353              	.LFB171:
  52:source\asw/main.c **** }
  53:source\asw/main.c **** 
  54:source\asw/main.c **** /********************************************************************************
  55:source\asw/main.c ****  * Task Definitions
  56:source\asw/main.c ****  ********************************************************************************/
  57:source\asw/main.c **** 
  58:source\asw/main.c **** TASK(tsk_init)
  59:source\asw/main.c **** {
 354              		.loc 1 59 0
 355              		.cfi_startproc
 356              		@ args = 0, pretend = 0, frame = 0
 357              		@ frame_needed = 0, uses_anonymous_args = 0
 358 0000 08B5     		push	{r3, lr}
 359              		.cfi_def_cfa_offset 8
 360              		.cfi_offset 3, -8
 361              		.cfi_offset 14, -4
  60:source\asw/main.c ****     
  61:source\asw/main.c ****     //Init MCAL Drivers   
  62:source\asw/main.c ****     DETECTOR_init(&movementDetector);
 362              		.loc 1 62 0
 363 0002 0948     		ldr	r0, .L19
 364 0004 FFF7FEFF 		bl	DETECTOR_init
 365              	.LVL22:
  63:source\asw/main.c ****     
  64:source\asw/main.c ****     
  65:source\asw/main.c ****     //Reconfigure ISRs with OS parameters.
  66:source\asw/main.c ****     //This line MUST be called after the hardware driver initialisation!
  67:source\asw/main.c ****     EE_system_init();
ARM GAS  C:\Users\zakis\AppData\Local\Temp\ccd2W9SZ.s 			page 21


 366              		.loc 1 67 0
 367 0008 FFF7FEFF 		bl	EE_system_init
 368              	.LVL23:
 369              	.LBB204:
 370              	.LBB205:
  81:Generated_Source\PSoC5/ErikaOS_cortex_mx_ee_systick.inc **** }
 371              		.loc 5 81 0
 372 000c 074A     		ldr	r2, .L19+4
 373 000e 1368     		ldr	r3, [r2]
 374 0010 43F00503 		orr	r3, r3, #5
 375 0014 1360     		str	r3, [r2]
 376              	.LBE205:
 377              	.LBE204:
  68:source\asw/main.c **** 	
  69:source\asw/main.c ****     //Start SysTick
  70:source\asw/main.c **** 	//Must be done here, because otherwise the isr vector is not overwritten yet
  71:source\asw/main.c ****     EE_systick_start();  
  72:source\asw/main.c ****     
  73:source\asw/main.c ****     //Activate tasks
  74:source\asw/main.c ****     ActivateTask(tsk_control);
 378              		.loc 1 74 0
 379 0016 0220     		movs	r0, #2
 380 0018 FFF7FEFF 		bl	EE_oo_ActivateTask
 381              	.LVL24:
  75:source\asw/main.c ****     ActivateTask(tsk_background);
 382              		.loc 1 75 0
 383 001c 0120     		movs	r0, #1
 384 001e FFF7FEFF 		bl	EE_oo_ActivateTask
 385              	.LVL25:
  76:source\asw/main.c **** 
  77:source\asw/main.c ****     TerminateTask();
 386              		.loc 1 77 0
 387 0022 FFF7FEFF 		bl	EE_oo_TerminateTask
 388              	.LVL26:
 389 0026 08BD     		pop	{r3, pc}
 390              	.L20:
 391              		.align	2
 392              	.L19:
 393 0028 00000000 		.word	movementDetector
 394 002c 10E000E0 		.word	-536813552
 395              		.cfi_endproc
 396              	.LFE171:
 397              		.size	Functsk_init, .-Functsk_init
 398              		.section	.text.Functsk_control,"ax",%progbits
 399              		.align	2
 400              		.global	Functsk_control
 401              		.thumb
 402              		.thumb_func
 403              		.type	Functsk_control, %function
 404              	Functsk_control:
 405              	.LFB172:
  78:source\asw/main.c ****     
  79:source\asw/main.c **** }
  80:source\asw/main.c **** 
  81:source\asw/main.c **** 
  82:source\asw/main.c **** 
  83:source\asw/main.c **** 
ARM GAS  C:\Users\zakis\AppData\Local\Temp\ccd2W9SZ.s 			page 22


  84:source\asw/main.c **** TASK(tsk_control)
  85:source\asw/main.c **** {
 406              		.loc 1 85 0
 407              		.cfi_startproc
 408              		@ args = 0, pretend = 0, frame = 8
 409              		@ frame_needed = 0, uses_anonymous_args = 0
 410 0000 00B5     		push	{lr}
 411              		.cfi_def_cfa_offset 4
 412              		.cfi_offset 14, -4
 413 0002 83B0     		sub	sp, sp, #12
 414              		.cfi_def_cfa_offset 16
  86:source\asw/main.c ****     //Initialize an event and wait for its trigger
  87:source\asw/main.c ****     EventMaskType ev = 0;
 415              		.loc 1 87 0
 416 0004 0023     		movs	r3, #0
 417 0006 0193     		str	r3, [sp, #4]
 418              	.L22:
  88:source\asw/main.c ****     
  89:source\asw/main.c ****     while (1){
  90:source\asw/main.c ****         WaitEvent(ev_pushButton | ev_reSample | ev_sReceived | ev_send | ev_oReceived | ev_sendFFT 
 419              		.loc 1 90 0 discriminator 1
 420 0008 40F2FB10 		movw	r0, #507
 421 000c FFF7FEFF 		bl	EE_oo_WaitEvent
 422              	.LVL27:
  91:source\asw/main.c ****         GetEvent(tsk_control, &ev);
 423              		.loc 1 91 0 discriminator 1
 424 0010 01A9     		add	r1, sp, #4
 425 0012 0220     		movs	r0, #2
 426 0014 FFF7FEFF 		bl	EE_oo_GetEvent
 427              	.LVL28:
  92:source\asw/main.c ****         ClearEvent(ev);
 428              		.loc 1 92 0 discriminator 1
 429 0018 0198     		ldr	r0, [sp, #4]
 430 001a FFF7FEFF 		bl	EE_oo_ClearEvent
 431              	.LVL29:
  93:source\asw/main.c ****         
  94:source\asw/main.c ****         // Process the event received
  95:source\asw/main.c ****         DETECTOR_processEvents(&movementDetector, ev);
 432              		.loc 1 95 0 discriminator 1
 433 001e 0199     		ldr	r1, [sp, #4]
 434 0020 0148     		ldr	r0, .L24
 435 0022 FFF7FEFF 		bl	DETECTOR_processEvents
 436              	.LVL30:
 437 0026 EFE7     		b	.L22
 438              	.L25:
 439              		.align	2
 440              	.L24:
 441 0028 00000000 		.word	movementDetector
 442              		.cfi_endproc
 443              	.LFE172:
 444              		.size	Functsk_control, .-Functsk_control
 445              		.section	.text.Functsk_background,"ax",%progbits
 446              		.align	2
 447              		.global	Functsk_background
 448              		.thumb
 449              		.thumb_func
 450              		.type	Functsk_background, %function
ARM GAS  C:\Users\zakis\AppData\Local\Temp\ccd2W9SZ.s 			page 23


 451              	Functsk_background:
 452              	.LFB173:
  96:source\asw/main.c ****         
  97:source\asw/main.c ****     }
  98:source\asw/main.c **** 
  99:source\asw/main.c ****     TerminateTask();
 100:source\asw/main.c **** }
 101:source\asw/main.c **** 
 102:source\asw/main.c **** // Idle task
 103:source\asw/main.c **** TASK(tsk_background)
 104:source\asw/main.c **** {
 453              		.loc 1 104 0
 454              		.cfi_startproc
 455              		@ Volatile: function does not return.
 456              		@ args = 0, pretend = 0, frame = 0
 457              		@ frame_needed = 0, uses_anonymous_args = 0
 458              		@ link register save eliminated.
 459              	.L27:
 460 0000 FEE7     		b	.L27
 461              		.cfi_endproc
 462              	.LFE173:
 463              		.size	Functsk_background, .-Functsk_background
 464 0002 00BF     		.section	.text.ISR2_isr_UART_Rx,"ax",%progbits
 465              		.align	2
 466              		.global	ISR2_isr_UART_Rx
 467              		.thumb
 468              		.thumb_func
 469              		.type	ISR2_isr_UART_Rx, %function
 470              	ISR2_isr_UART_Rx:
 471              	.LFB175:
 105:source\asw/main.c ****     
 106:source\asw/main.c ****     
 107:source\asw/main.c ****     while(1)
 108:source\asw/main.c ****     {
 109:source\asw/main.c **** 
 110:source\asw/main.c ****     }
 111:source\asw/main.c ****     TerminateTask();
 112:source\asw/main.c ****     
 113:source\asw/main.c **** }
 114:source\asw/main.c **** 
 115:source\asw/main.c **** // Process interrupts received on UART
 116:source\asw/main.c **** ISR2(isr_UART_Rx){
 472              		.loc 1 116 0
 473              		.cfi_startproc
 474              		@ args = 0, pretend = 0, frame = 0
 475              		@ frame_needed = 0, uses_anonymous_args = 0
 476              		.loc 1 116 0
 477 0000 08B5     		push	{r3, lr}
 478              		.cfi_def_cfa_offset 8
 479              		.cfi_offset 3, -8
 480              		.cfi_offset 14, -4
 117:source\asw/main.c ****     
 118:source\asw/main.c ****     uint8_t data = UART_LOG_GetByte();
 481              		.loc 1 118 0
 482 0002 FFF7FEFF 		bl	UART_LOG_GetByte
 483              	.LVL31:
 484 0006 C0B2     		uxtb	r0, r0
ARM GAS  C:\Users\zakis\AppData\Local\Temp\ccd2W9SZ.s 			page 24


 485              	.LVL32:
 119:source\asw/main.c ****     if (data ==  UART_START_VARIABLE){
 486              		.loc 1 119 0
 487 0008 7328     		cmp	r0, #115
 488 000a 04D1     		bne	.L29
 120:source\asw/main.c ****         SetEvent(tsk_control, ev_sReceived);
 489              		.loc 1 120 0
 490 000c 0221     		movs	r1, #2
 491 000e 0846     		mov	r0, r1
 492              	.LVL33:
 493 0010 FFF7FEFF 		bl	EE_oo_SetEvent
 494              	.LVL34:
 495 0014 08BD     		pop	{r3, pc}
 496              	.LVL35:
 497              	.L29:
 121:source\asw/main.c ****     } else if (data == UART_FINISH_VARIABLE){
 498              		.loc 1 121 0
 499 0016 6F28     		cmp	r0, #111
 500 0018 04D1     		bne	.L31
 122:source\asw/main.c ****         SetEvent(tsk_control, ev_oReceived); 
 501              		.loc 1 122 0
 502 001a 1021     		movs	r1, #16
 503 001c 0220     		movs	r0, #2
 504              	.LVL36:
 505 001e FFF7FEFF 		bl	EE_oo_SetEvent
 506              	.LVL37:
 507 0022 08BD     		pop	{r3, pc}
 508              	.LVL38:
 509              	.L31:
 123:source\asw/main.c ****     } else if (data == UART_TARGET_VARIABLE){
 510              		.loc 1 123 0
 511 0024 7428     		cmp	r0, #116
 512 0026 04D1     		bne	.L32
 124:source\asw/main.c ****         SetEvent(tsk_control, ev_tReceived); 
 513              		.loc 1 124 0
 514 0028 8021     		movs	r1, #128
 515 002a 0220     		movs	r0, #2
 516              	.LVL39:
 517 002c FFF7FEFF 		bl	EE_oo_SetEvent
 518              	.LVL40:
 519 0030 08BD     		pop	{r3, pc}
 520              	.LVL41:
 521              	.L32:
 125:source\asw/main.c ****     } else if (data == UART_NO_TARGET_VARIABLE){
 522              		.loc 1 125 0
 523 0032 6E28     		cmp	r0, #110
 524 0034 04D1     		bne	.L28
 126:source\asw/main.c ****         SetEvent(tsk_control, ev_nReceived); 
 525              		.loc 1 126 0
 526 0036 4FF48071 		mov	r1, #256
 527 003a 0220     		movs	r0, #2
 528              	.LVL42:
 529 003c FFF7FEFF 		bl	EE_oo_SetEvent
 530              	.LVL43:
 531              	.L28:
 532 0040 08BD     		pop	{r3, pc}
 533              		.cfi_endproc
ARM GAS  C:\Users\zakis\AppData\Local\Temp\ccd2W9SZ.s 			page 25


 534              	.LFE175:
 535              		.size	ISR2_isr_UART_Rx, .-ISR2_isr_UART_Rx
 536 0042 00BF     		.section	.text.isr_UART_Rx,"ax",%progbits
 537              		.align	2
 538              		.global	isr_UART_Rx
 539              		.thumb
 540              		.thumb_func
 541              		.type	isr_UART_Rx, %function
 542              	isr_UART_Rx:
 543              	.LFB174:
 116:source\asw/main.c ****     
 544              		.loc 1 116 0
 545              		.cfi_startproc
 546              		@ Stack Align: May be called with mis-aligned SP.
 547              		@ args = 0, pretend = 0, frame = 0
 548              		@ frame_needed = 0, uses_anonymous_args = 0
 549 0000 6846     		mov	r0, sp
 550              		.cfi_register 13, 0
 551 0002 20F00701 		bic	r1, r0, #7
 552 0006 8D46     		mov	sp, r1
 553 0008 19B5     		push	{r0, r3, r4, lr}
 554              		.cfi_def_cfa_offset 16
 555              		.cfi_offset 13, -16
 556              		.cfi_offset 3, -12
 557              		.cfi_offset 4, -8
 558              		.cfi_offset 14, -4
 559              	.LVL44:
 560              	.LBB230:
 561              	.LBB231:
 211:Generated_Source\PSoC5/ErikaOS_cortex_mx_ee_cpu.inc **** #endif	/* !__KEIL__ */
 562              		.loc 2 211 0
 563              		.syntax unified
 564              	@ 211 "Generated_Source\PSoC5/ErikaOS_cortex_mx_ee_cpu.inc" 1
 565 000a 72B6     		cpsid i
 566              	@ 0 "" 2
 567              		.thumb
 568              		.syntax unified
 569              	.LBE231:
 570              	.LBE230:
 571              	.LBB232:
 572              	.LBB233:
 325:Generated_Source\PSoC5/ErikaOS_cortex_mx_ee_cpu.inc **** #else
 573              		.loc 2 325 0
 574              		.syntax unified
 575              	@ 325 "Generated_Source\PSoC5/ErikaOS_cortex_mx_ee_cpu.inc" 1
 576 000c EFF31184 		MRS r4, BASEPRI
 577              	@ 0 "" 2
 578              	.LVL45:
 579              		.thumb
 580              		.syntax unified
 581              	.LBE233:
 582              	.LBE232:
 583              	.LBB234:
 584              	.LBB235:
 372:Generated_Source\PSoC5/ErikaOS_cortex_mx_ee_cpu.inc ****   register EE_TYPEISR2PRIO prio = 0;
 585              		.loc 2 372 0
 586 0010 1E4B     		ldr	r3, .L40
ARM GAS  C:\Users\zakis\AppData\Local\Temp\ccd2W9SZ.s 			page 26


 587 0012 1B68     		ldr	r3, [r3]
 588 0014 DBB2     		uxtb	r3, r3
 589              	.LVL46:
 375:Generated_Source\PSoC5/ErikaOS_cortex_mx_ee_cpu.inc ****     vectact -= EE_CORTEX_MX_SYSTICK_EXC_NUM + 1;
 590              		.loc 2 375 0
 591 0016 0F2B     		cmp	r3, #15
 592 0018 10D9     		bls	.L35
 376:Generated_Source\PSoC5/ErikaOS_cortex_mx_ee_cpu.inc ****     prio = NVIC_GET_PRI(vectact);
 593              		.loc 2 376 0
 594 001a 103B     		subs	r3, r3, #16
 595              	.LVL47:
 377:Generated_Source\PSoC5/ErikaOS_cortex_mx_ee_cpu.inc ****   }
 596              		.loc 2 377 0
 597 001c 23F00302 		bic	r2, r3, #3
 598 0020 02F16042 		add	r2, r2, #-536870912
 599 0024 02F56442 		add	r2, r2, #58368
 600 0028 1168     		ldr	r1, [r2]
 601 002a DB00     		lsls	r3, r3, #3
 602              	.LVL48:
 603 002c 03F01803 		and	r3, r3, #24
 604 0030 E022     		movs	r2, #224
 605 0032 9A40     		lsls	r2, r2, r3
 606 0034 0A40     		ands	r2, r2, r1
 607 0036 22FA03F3 		lsr	r3, r2, r3
 608              	.LVL49:
 609 003a 06E0     		b	.L36
 610              	.LVL50:
 611              	.L35:
 380:Generated_Source\PSoC5/ErikaOS_cortex_mx_ee_cpu.inc ****     prio = NVIC_SYS_PRI3_R >> NVIC_SYS_PRI3_TICK_S;
 612              		.loc 2 380 0
 613 003c 0F2B     		cmp	r3, #15
 614 003e 03D1     		bne	.L39
 615              		.loc 2 381 0
 616 0040 134B     		ldr	r3, .L40+4
 617              	.LVL51:
 618 0042 1B68     		ldr	r3, [r3]
 619 0044 1B0E     		lsrs	r3, r3, #24
 620              	.LVL52:
 621 0046 00E0     		b	.L36
 622              	.LVL53:
 623              	.L39:
 373:Generated_Source\PSoC5/ErikaOS_cortex_mx_ee_cpu.inc **** 
 624              		.loc 2 373 0
 625 0048 0023     		movs	r3, #0
 626              	.LVL54:
 627              	.L36:
 628              	.LBE235:
 629              	.LBE234:
 630              	.LBB236:
 631              	.LBB237:
 358:Generated_Source\PSoC5/ErikaOS_cortex_mx_ee_cpu.inc **** #else
 632              		.loc 2 358 0
 633              		.syntax unified
 634              	@ 358 "Generated_Source\PSoC5/ErikaOS_cortex_mx_ee_cpu.inc" 1
 635 004a 83F31188 		MSR BASEPRI, r3
 636              	@ 0 "" 2
 637              		.thumb
ARM GAS  C:\Users\zakis\AppData\Local\Temp\ccd2W9SZ.s 			page 27


 638              		.syntax unified
 639              	.LBE237:
 640              	.LBE236:
 641              	.LBB238:
 642              	.LBB239:
  85:Generated_Source\PSoC5/ErikaOS_common_ee_irqstub.inc **** /*  EE_std_enableIRQ_nested() and EE_std_disableIRQ_nested() must be defined in
 643              		.loc 3 85 0
 644 004e 114A     		ldr	r2, .L40+8
 645 0050 1368     		ldr	r3, [r2]
 646 0052 0133     		adds	r3, r3, #1
 647 0054 1360     		str	r3, [r2]
 648              	.LBE239:
 649              	.LBE238:
 116:source\asw/main.c ****     
 650              		.loc 1 116 0
 651 0056 012B     		cmp	r3, #1
 652 0058 01D1     		bne	.L37
 116:source\asw/main.c ****     
 653              		.loc 1 116 0 is_stmt 0 discriminator 1
 654 005a FFF7FEFF 		bl	EE_cortex_mx_change_IRQ_stack
 655              	.LVL55:
 656              	.L37:
 657              	.LBB240:
 658              	.LBB241:
 191:Generated_Source\PSoC5/ErikaOS_cortex_mx_ee_cpu.inc **** #endif	/* !__KEIL__ */
 659              		.loc 2 191 0 is_stmt 1 discriminator 3
 660              		.syntax unified
 661              	@ 191 "Generated_Source\PSoC5/ErikaOS_cortex_mx_ee_cpu.inc" 1
 662 005e 62B6     		cpsie i
 663              	@ 0 "" 2
 664              		.thumb
 665              		.syntax unified
 666              	.LBE241:
 667              	.LBE240:
 116:source\asw/main.c ****     
 668              		.loc 1 116 0 discriminator 3
 669 0060 FFF7FEFF 		bl	ISR2_isr_UART_Rx
 670              	.LVL56:
 671              	.LBB242:
 672              	.LBB243:
 211:Generated_Source\PSoC5/ErikaOS_cortex_mx_ee_cpu.inc **** #endif	/* !__KEIL__ */
 673              		.loc 2 211 0 discriminator 3
 674              		.syntax unified
 675              	@ 211 "Generated_Source\PSoC5/ErikaOS_cortex_mx_ee_cpu.inc" 1
 676 0064 72B6     		cpsid i
 677              	@ 0 "" 2
 678              	.LVL57:
 679              		.thumb
 680              		.syntax unified
 681              	.LBE243:
 682              	.LBE242:
 683              	.LBB244:
 684              	.LBB245:
 358:Generated_Source\PSoC5/ErikaOS_cortex_mx_ee_cpu.inc **** #else
 685              		.loc 2 358 0 discriminator 3
 686              		.syntax unified
 687              	@ 358 "Generated_Source\PSoC5/ErikaOS_cortex_mx_ee_cpu.inc" 1
ARM GAS  C:\Users\zakis\AppData\Local\Temp\ccd2W9SZ.s 			page 28


 688 0066 84F31188 		MSR BASEPRI, r4
 689              	@ 0 "" 2
 690              	.LVL58:
 691              		.thumb
 692              		.syntax unified
 693              	.LBE245:
 694              	.LBE244:
 695              	.LBB246:
 696              	.LBB247:
 697              		.loc 3 102 0 discriminator 3
 698 006a FFF7FEFF 		bl	EE_IRQ_end_post_stub
 699              	.LVL59:
 700              	.LBE247:
 701              	.LBE246:
 702              	.LBB248:
 703              	.LBB249:
  84:Generated_Source\PSoC5/ErikaOS_common_ee_irqstub.inc **** __INLINE__ void  EE_increment_IRQ_nesting_level(void) { ++EE_IRQ_nesting_level; }
 704              		.loc 3 84 0 discriminator 3
 705 006e 094A     		ldr	r2, .L40+8
 706 0070 1368     		ldr	r3, [r2]
 707 0072 013B     		subs	r3, r3, #1
 708 0074 1360     		str	r3, [r2]
 709              	.LBE249:
 710              	.LBE248:
 116:source\asw/main.c ****     
 711              		.loc 1 116 0 discriminator 3
 712 0076 1BB9     		cbnz	r3, .L38
 116:source\asw/main.c ****     
 713              		.loc 1 116 0 is_stmt 0 discriminator 4
 714 0078 FFF7FEFF 		bl	EE_cortex_mx_change_IRQ_stack_back
 715              	.LVL60:
 716              	.LBB250:
 717              	.LBB251:
 718              		.loc 4 68 0 is_stmt 1 discriminator 4
 719 007c FFF7FEFF 		bl	EE_switch_context
 720              	.LVL61:
 721              	.L38:
 722              	.LBE251:
 723              	.LBE250:
 724              	.LBB252:
 725              	.LBB253:
 191:Generated_Source\PSoC5/ErikaOS_cortex_mx_ee_cpu.inc **** #endif	/* !__KEIL__ */
 726              		.loc 2 191 0 discriminator 6
 727              		.syntax unified
 728              	@ 191 "Generated_Source\PSoC5/ErikaOS_cortex_mx_ee_cpu.inc" 1
 729 0080 62B6     		cpsie i
 730              	@ 0 "" 2
 731              		.thumb
 732              		.syntax unified
 733              	.LBE253:
 734              	.LBE252:
 116:source\asw/main.c ****     
 735              		.loc 1 116 0 discriminator 6
 736 0082 BDE81940 		pop	{r0, r3, r4, lr}
 737              		.cfi_restore 14
 738              		.cfi_restore 4
 739              		.cfi_restore 3
ARM GAS  C:\Users\zakis\AppData\Local\Temp\ccd2W9SZ.s 			page 29


 740              		.cfi_restore 0
 741              		.cfi_def_cfa_offset 0
 742 0086 8546     		mov	sp, r0
 743 0088 7047     		bx	lr
 744              	.L41:
 745 008a 00BF     		.align	2
 746              	.L40:
 747 008c 04ED00E0 		.word	-536810236
 748 0090 20ED00E0 		.word	-536810208
 749 0094 00000000 		.word	EE_IRQ_nesting_level
 750              		.cfi_endproc
 751              	.LFE174:
 752              		.size	isr_UART_Rx, .-isr_UART_Rx
 753              		.section	.text.ISR2_isr_DMA_ADC_MEM,"ax",%progbits
 754              		.align	2
 755              		.global	ISR2_isr_DMA_ADC_MEM
 756              		.thumb
 757              		.thumb_func
 758              		.type	ISR2_isr_DMA_ADC_MEM, %function
 759              	ISR2_isr_DMA_ADC_MEM:
 760              	.LFB177:
 127:source\asw/main.c ****     }
 128:source\asw/main.c ****     
 129:source\asw/main.c **** }
 130:source\asw/main.c **** 
 131:source\asw/main.c **** // Process interrupts when transfer from ADC to memory is completed
 132:source\asw/main.c **** ISR2(isr_DMA_ADC_MEM){
 761              		.loc 1 132 0
 762              		.cfi_startproc
 763              		@ args = 0, pretend = 0, frame = 0
 764              		@ frame_needed = 0, uses_anonymous_args = 0
 765 0000 08B5     		push	{r3, lr}
 766              		.cfi_def_cfa_offset 8
 767              		.cfi_offset 3, -8
 768              		.cfi_offset 14, -4
 133:source\asw/main.c ****     
 134:source\asw/main.c ****     SetEvent(tsk_control, ev_samplingFinished);
 769              		.loc 1 134 0
 770 0002 0421     		movs	r1, #4
 771 0004 0220     		movs	r0, #2
 772 0006 FFF7FEFF 		bl	EE_oo_SetEvent
 773              	.LVL62:
 774 000a 08BD     		pop	{r3, pc}
 775              		.cfi_endproc
 776              	.LFE177:
 777              		.size	ISR2_isr_DMA_ADC_MEM, .-ISR2_isr_DMA_ADC_MEM
 778              		.section	.text.isr_DMA_ADC_MEM,"ax",%progbits
 779              		.align	2
 780              		.global	isr_DMA_ADC_MEM
 781              		.thumb
 782              		.thumb_func
 783              		.type	isr_DMA_ADC_MEM, %function
 784              	isr_DMA_ADC_MEM:
 785              	.LFB176:
 132:source\asw/main.c ****     
 786              		.loc 1 132 0
 787              		.cfi_startproc
ARM GAS  C:\Users\zakis\AppData\Local\Temp\ccd2W9SZ.s 			page 30


 788              		@ Stack Align: May be called with mis-aligned SP.
 789              		@ args = 0, pretend = 0, frame = 0
 790              		@ frame_needed = 0, uses_anonymous_args = 0
 791 0000 6846     		mov	r0, sp
 792              		.cfi_register 13, 0
 793 0002 20F00701 		bic	r1, r0, #7
 794 0006 8D46     		mov	sp, r1
 795 0008 19B5     		push	{r0, r3, r4, lr}
 796              		.cfi_def_cfa_offset 16
 797              		.cfi_offset 13, -16
 798              		.cfi_offset 3, -12
 799              		.cfi_offset 4, -8
 800              		.cfi_offset 14, -4
 801              	.LVL63:
 802              	.LBB278:
 803              	.LBB279:
 211:Generated_Source\PSoC5/ErikaOS_cortex_mx_ee_cpu.inc **** #endif	/* !__KEIL__ */
 804              		.loc 2 211 0
 805              		.syntax unified
 806              	@ 211 "Generated_Source\PSoC5/ErikaOS_cortex_mx_ee_cpu.inc" 1
 807 000a 72B6     		cpsid i
 808              	@ 0 "" 2
 809              		.thumb
 810              		.syntax unified
 811              	.LBE279:
 812              	.LBE278:
 813              	.LBB280:
 814              	.LBB281:
 325:Generated_Source\PSoC5/ErikaOS_cortex_mx_ee_cpu.inc **** #else
 815              		.loc 2 325 0
 816              		.syntax unified
 817              	@ 325 "Generated_Source\PSoC5/ErikaOS_cortex_mx_ee_cpu.inc" 1
 818 000c EFF31184 		MRS r4, BASEPRI
 819              	@ 0 "" 2
 820              	.LVL64:
 821              		.thumb
 822              		.syntax unified
 823              	.LBE281:
 824              	.LBE280:
 825              	.LBB282:
 826              	.LBB283:
 372:Generated_Source\PSoC5/ErikaOS_cortex_mx_ee_cpu.inc ****   register EE_TYPEISR2PRIO prio = 0;
 827              		.loc 2 372 0
 828 0010 1E4B     		ldr	r3, .L50
 829 0012 1B68     		ldr	r3, [r3]
 830 0014 DBB2     		uxtb	r3, r3
 831              	.LVL65:
 375:Generated_Source\PSoC5/ErikaOS_cortex_mx_ee_cpu.inc ****     vectact -= EE_CORTEX_MX_SYSTICK_EXC_NUM + 1;
 832              		.loc 2 375 0
 833 0016 0F2B     		cmp	r3, #15
 834 0018 10D9     		bls	.L45
 376:Generated_Source\PSoC5/ErikaOS_cortex_mx_ee_cpu.inc ****     prio = NVIC_GET_PRI(vectact);
 835              		.loc 2 376 0
 836 001a 103B     		subs	r3, r3, #16
 837              	.LVL66:
 377:Generated_Source\PSoC5/ErikaOS_cortex_mx_ee_cpu.inc ****   }
 838              		.loc 2 377 0
ARM GAS  C:\Users\zakis\AppData\Local\Temp\ccd2W9SZ.s 			page 31


 839 001c 23F00302 		bic	r2, r3, #3
 840 0020 02F16042 		add	r2, r2, #-536870912
 841 0024 02F56442 		add	r2, r2, #58368
 842 0028 1168     		ldr	r1, [r2]
 843 002a DB00     		lsls	r3, r3, #3
 844              	.LVL67:
 845 002c 03F01803 		and	r3, r3, #24
 846 0030 E022     		movs	r2, #224
 847 0032 9A40     		lsls	r2, r2, r3
 848 0034 0A40     		ands	r2, r2, r1
 849 0036 22FA03F3 		lsr	r3, r2, r3
 850              	.LVL68:
 851 003a 06E0     		b	.L46
 852              	.LVL69:
 853              	.L45:
 380:Generated_Source\PSoC5/ErikaOS_cortex_mx_ee_cpu.inc ****     prio = NVIC_SYS_PRI3_R >> NVIC_SYS_PRI3_TICK_S;
 854              		.loc 2 380 0
 855 003c 0F2B     		cmp	r3, #15
 856 003e 03D1     		bne	.L49
 857              		.loc 2 381 0
 858 0040 134B     		ldr	r3, .L50+4
 859              	.LVL70:
 860 0042 1B68     		ldr	r3, [r3]
 861 0044 1B0E     		lsrs	r3, r3, #24
 862              	.LVL71:
 863 0046 00E0     		b	.L46
 864              	.LVL72:
 865              	.L49:
 373:Generated_Source\PSoC5/ErikaOS_cortex_mx_ee_cpu.inc **** 
 866              		.loc 2 373 0
 867 0048 0023     		movs	r3, #0
 868              	.LVL73:
 869              	.L46:
 870              	.LBE283:
 871              	.LBE282:
 872              	.LBB284:
 873              	.LBB285:
 358:Generated_Source\PSoC5/ErikaOS_cortex_mx_ee_cpu.inc **** #else
 874              		.loc 2 358 0
 875              		.syntax unified
 876              	@ 358 "Generated_Source\PSoC5/ErikaOS_cortex_mx_ee_cpu.inc" 1
 877 004a 83F31188 		MSR BASEPRI, r3
 878              	@ 0 "" 2
 879              		.thumb
 880              		.syntax unified
 881              	.LBE285:
 882              	.LBE284:
 883              	.LBB286:
 884              	.LBB287:
  85:Generated_Source\PSoC5/ErikaOS_common_ee_irqstub.inc **** /*  EE_std_enableIRQ_nested() and EE_std_disableIRQ_nested() must be defined in
 885              		.loc 3 85 0
 886 004e 114A     		ldr	r2, .L50+8
 887 0050 1368     		ldr	r3, [r2]
 888 0052 0133     		adds	r3, r3, #1
 889 0054 1360     		str	r3, [r2]
 890              	.LBE287:
 891              	.LBE286:
ARM GAS  C:\Users\zakis\AppData\Local\Temp\ccd2W9SZ.s 			page 32


 132:source\asw/main.c ****     
 892              		.loc 1 132 0
 893 0056 012B     		cmp	r3, #1
 894 0058 01D1     		bne	.L47
 132:source\asw/main.c ****     
 895              		.loc 1 132 0 is_stmt 0 discriminator 1
 896 005a FFF7FEFF 		bl	EE_cortex_mx_change_IRQ_stack
 897              	.LVL74:
 898              	.L47:
 899              	.LBB288:
 900              	.LBB289:
 191:Generated_Source\PSoC5/ErikaOS_cortex_mx_ee_cpu.inc **** #endif	/* !__KEIL__ */
 901              		.loc 2 191 0 is_stmt 1 discriminator 3
 902              		.syntax unified
 903              	@ 191 "Generated_Source\PSoC5/ErikaOS_cortex_mx_ee_cpu.inc" 1
 904 005e 62B6     		cpsie i
 905              	@ 0 "" 2
 906              		.thumb
 907              		.syntax unified
 908              	.LBE289:
 909              	.LBE288:
 132:source\asw/main.c ****     
 910              		.loc 1 132 0 discriminator 3
 911 0060 FFF7FEFF 		bl	ISR2_isr_DMA_ADC_MEM
 912              	.LVL75:
 913              	.LBB290:
 914              	.LBB291:
 211:Generated_Source\PSoC5/ErikaOS_cortex_mx_ee_cpu.inc **** #endif	/* !__KEIL__ */
 915              		.loc 2 211 0 discriminator 3
 916              		.syntax unified
 917              	@ 211 "Generated_Source\PSoC5/ErikaOS_cortex_mx_ee_cpu.inc" 1
 918 0064 72B6     		cpsid i
 919              	@ 0 "" 2
 920              	.LVL76:
 921              		.thumb
 922              		.syntax unified
 923              	.LBE291:
 924              	.LBE290:
 925              	.LBB292:
 926              	.LBB293:
 358:Generated_Source\PSoC5/ErikaOS_cortex_mx_ee_cpu.inc **** #else
 927              		.loc 2 358 0 discriminator 3
 928              		.syntax unified
 929              	@ 358 "Generated_Source\PSoC5/ErikaOS_cortex_mx_ee_cpu.inc" 1
 930 0066 84F31188 		MSR BASEPRI, r4
 931              	@ 0 "" 2
 932              	.LVL77:
 933              		.thumb
 934              		.syntax unified
 935              	.LBE293:
 936              	.LBE292:
 937              	.LBB294:
 938              	.LBB295:
 939              		.loc 3 102 0 discriminator 3
 940 006a FFF7FEFF 		bl	EE_IRQ_end_post_stub
 941              	.LVL78:
 942              	.LBE295:
ARM GAS  C:\Users\zakis\AppData\Local\Temp\ccd2W9SZ.s 			page 33


 943              	.LBE294:
 944              	.LBB296:
 945              	.LBB297:
  84:Generated_Source\PSoC5/ErikaOS_common_ee_irqstub.inc **** __INLINE__ void  EE_increment_IRQ_nesting_level(void) { ++EE_IRQ_nesting_level; }
 946              		.loc 3 84 0 discriminator 3
 947 006e 094A     		ldr	r2, .L50+8
 948 0070 1368     		ldr	r3, [r2]
 949 0072 013B     		subs	r3, r3, #1
 950 0074 1360     		str	r3, [r2]
 951              	.LBE297:
 952              	.LBE296:
 132:source\asw/main.c ****     
 953              		.loc 1 132 0 discriminator 3
 954 0076 1BB9     		cbnz	r3, .L48
 132:source\asw/main.c ****     
 955              		.loc 1 132 0 is_stmt 0 discriminator 4
 956 0078 FFF7FEFF 		bl	EE_cortex_mx_change_IRQ_stack_back
 957              	.LVL79:
 958              	.LBB298:
 959              	.LBB299:
 960              		.loc 4 68 0 is_stmt 1 discriminator 4
 961 007c FFF7FEFF 		bl	EE_switch_context
 962              	.LVL80:
 963              	.L48:
 964              	.LBE299:
 965              	.LBE298:
 966              	.LBB300:
 967              	.LBB301:
 191:Generated_Source\PSoC5/ErikaOS_cortex_mx_ee_cpu.inc **** #endif	/* !__KEIL__ */
 968              		.loc 2 191 0 discriminator 6
 969              		.syntax unified
 970              	@ 191 "Generated_Source\PSoC5/ErikaOS_cortex_mx_ee_cpu.inc" 1
 971 0080 62B6     		cpsie i
 972              	@ 0 "" 2
 973              		.thumb
 974              		.syntax unified
 975              	.LBE301:
 976              	.LBE300:
 132:source\asw/main.c ****     
 977              		.loc 1 132 0 discriminator 6
 978 0082 BDE81940 		pop	{r0, r3, r4, lr}
 979              		.cfi_restore 14
 980              		.cfi_restore 4
 981              		.cfi_restore 3
 982              		.cfi_restore 0
 983              		.cfi_def_cfa_offset 0
 984 0086 8546     		mov	sp, r0
 985 0088 7047     		bx	lr
 986              	.L51:
 987 008a 00BF     		.align	2
 988              	.L50:
 989 008c 04ED00E0 		.word	-536810236
 990 0090 20ED00E0 		.word	-536810208
 991 0094 00000000 		.word	EE_IRQ_nesting_level
 992              		.cfi_endproc
 993              	.LFE176:
 994              		.size	isr_DMA_ADC_MEM, .-isr_DMA_ADC_MEM
ARM GAS  C:\Users\zakis\AppData\Local\Temp\ccd2W9SZ.s 			page 34


 995              		.section	.text.ISR2_isr_pushButton,"ax",%progbits
 996              		.align	2
 997              		.global	ISR2_isr_pushButton
 998              		.thumb
 999              		.thumb_func
 1000              		.type	ISR2_isr_pushButton, %function
 1001              	ISR2_isr_pushButton:
 1002              	.LFB179:
 135:source\asw/main.c **** }
 136:source\asw/main.c **** 
 137:source\asw/main.c **** // Process interrupts when button is pressed
 138:source\asw/main.c **** ISR2(isr_pushButton){
 1003              		.loc 1 138 0
 1004              		.cfi_startproc
 1005              		@ args = 0, pretend = 0, frame = 0
 1006              		@ frame_needed = 0, uses_anonymous_args = 0
 1007 0000 08B5     		push	{r3, lr}
 1008              		.cfi_def_cfa_offset 8
 1009              		.cfi_offset 3, -8
 1010              		.cfi_offset 14, -4
 139:source\asw/main.c ****     
 140:source\asw/main.c ****     SetEvent(tsk_control, ev_pushButton);
 1011              		.loc 1 140 0
 1012 0002 0121     		movs	r1, #1
 1013 0004 0220     		movs	r0, #2
 1014 0006 FFF7FEFF 		bl	EE_oo_SetEvent
 1015              	.LVL81:
 1016 000a 08BD     		pop	{r3, pc}
 1017              		.cfi_endproc
 1018              	.LFE179:
 1019              		.size	ISR2_isr_pushButton, .-ISR2_isr_pushButton
 1020              		.section	.text.isr_pushButton,"ax",%progbits
 1021              		.align	2
 1022              		.global	isr_pushButton
 1023              		.thumb
 1024              		.thumb_func
 1025              		.type	isr_pushButton, %function
 1026              	isr_pushButton:
 1027              	.LFB178:
 138:source\asw/main.c ****     
 1028              		.loc 1 138 0
 1029              		.cfi_startproc
 1030              		@ Stack Align: May be called with mis-aligned SP.
 1031              		@ args = 0, pretend = 0, frame = 0
 1032              		@ frame_needed = 0, uses_anonymous_args = 0
 1033 0000 6846     		mov	r0, sp
 1034              		.cfi_register 13, 0
 1035 0002 20F00701 		bic	r1, r0, #7
 1036 0006 8D46     		mov	sp, r1
 1037 0008 19B5     		push	{r0, r3, r4, lr}
 1038              		.cfi_def_cfa_offset 16
 1039              		.cfi_offset 13, -16
 1040              		.cfi_offset 3, -12
 1041              		.cfi_offset 4, -8
 1042              		.cfi_offset 14, -4
 1043              	.LVL82:
 1044              	.LBB326:
ARM GAS  C:\Users\zakis\AppData\Local\Temp\ccd2W9SZ.s 			page 35


 1045              	.LBB327:
 211:Generated_Source\PSoC5/ErikaOS_cortex_mx_ee_cpu.inc **** #endif	/* !__KEIL__ */
 1046              		.loc 2 211 0
 1047              		.syntax unified
 1048              	@ 211 "Generated_Source\PSoC5/ErikaOS_cortex_mx_ee_cpu.inc" 1
 1049 000a 72B6     		cpsid i
 1050              	@ 0 "" 2
 1051              		.thumb
 1052              		.syntax unified
 1053              	.LBE327:
 1054              	.LBE326:
 1055              	.LBB328:
 1056              	.LBB329:
 325:Generated_Source\PSoC5/ErikaOS_cortex_mx_ee_cpu.inc **** #else
 1057              		.loc 2 325 0
 1058              		.syntax unified
 1059              	@ 325 "Generated_Source\PSoC5/ErikaOS_cortex_mx_ee_cpu.inc" 1
 1060 000c EFF31184 		MRS r4, BASEPRI
 1061              	@ 0 "" 2
 1062              	.LVL83:
 1063              		.thumb
 1064              		.syntax unified
 1065              	.LBE329:
 1066              	.LBE328:
 1067              	.LBB330:
 1068              	.LBB331:
 372:Generated_Source\PSoC5/ErikaOS_cortex_mx_ee_cpu.inc ****   register EE_TYPEISR2PRIO prio = 0;
 1069              		.loc 2 372 0
 1070 0010 1E4B     		ldr	r3, .L60
 1071 0012 1B68     		ldr	r3, [r3]
 1072 0014 DBB2     		uxtb	r3, r3
 1073              	.LVL84:
 375:Generated_Source\PSoC5/ErikaOS_cortex_mx_ee_cpu.inc ****     vectact -= EE_CORTEX_MX_SYSTICK_EXC_NUM + 1;
 1074              		.loc 2 375 0
 1075 0016 0F2B     		cmp	r3, #15
 1076 0018 10D9     		bls	.L55
 376:Generated_Source\PSoC5/ErikaOS_cortex_mx_ee_cpu.inc ****     prio = NVIC_GET_PRI(vectact);
 1077              		.loc 2 376 0
 1078 001a 103B     		subs	r3, r3, #16
 1079              	.LVL85:
 377:Generated_Source\PSoC5/ErikaOS_cortex_mx_ee_cpu.inc ****   }
 1080              		.loc 2 377 0
 1081 001c 23F00302 		bic	r2, r3, #3
 1082 0020 02F16042 		add	r2, r2, #-536870912
 1083 0024 02F56442 		add	r2, r2, #58368
 1084 0028 1168     		ldr	r1, [r2]
 1085 002a DB00     		lsls	r3, r3, #3
 1086              	.LVL86:
 1087 002c 03F01803 		and	r3, r3, #24
 1088 0030 E022     		movs	r2, #224
 1089 0032 9A40     		lsls	r2, r2, r3
 1090 0034 0A40     		ands	r2, r2, r1
 1091 0036 22FA03F3 		lsr	r3, r2, r3
 1092              	.LVL87:
 1093 003a 06E0     		b	.L56
 1094              	.LVL88:
 1095              	.L55:
ARM GAS  C:\Users\zakis\AppData\Local\Temp\ccd2W9SZ.s 			page 36


 380:Generated_Source\PSoC5/ErikaOS_cortex_mx_ee_cpu.inc ****     prio = NVIC_SYS_PRI3_R >> NVIC_SYS_PRI3_TICK_S;
 1096              		.loc 2 380 0
 1097 003c 0F2B     		cmp	r3, #15
 1098 003e 03D1     		bne	.L59
 1099              		.loc 2 381 0
 1100 0040 134B     		ldr	r3, .L60+4
 1101              	.LVL89:
 1102 0042 1B68     		ldr	r3, [r3]
 1103 0044 1B0E     		lsrs	r3, r3, #24
 1104              	.LVL90:
 1105 0046 00E0     		b	.L56
 1106              	.LVL91:
 1107              	.L59:
 373:Generated_Source\PSoC5/ErikaOS_cortex_mx_ee_cpu.inc **** 
 1108              		.loc 2 373 0
 1109 0048 0023     		movs	r3, #0
 1110              	.LVL92:
 1111              	.L56:
 1112              	.LBE331:
 1113              	.LBE330:
 1114              	.LBB332:
 1115              	.LBB333:
 358:Generated_Source\PSoC5/ErikaOS_cortex_mx_ee_cpu.inc **** #else
 1116              		.loc 2 358 0
 1117              		.syntax unified
 1118              	@ 358 "Generated_Source\PSoC5/ErikaOS_cortex_mx_ee_cpu.inc" 1
 1119 004a 83F31188 		MSR BASEPRI, r3
 1120              	@ 0 "" 2
 1121              		.thumb
 1122              		.syntax unified
 1123              	.LBE333:
 1124              	.LBE332:
 1125              	.LBB334:
 1126              	.LBB335:
  85:Generated_Source\PSoC5/ErikaOS_common_ee_irqstub.inc **** /*  EE_std_enableIRQ_nested() and EE_std_disableIRQ_nested() must be defined in
 1127              		.loc 3 85 0
 1128 004e 114A     		ldr	r2, .L60+8
 1129 0050 1368     		ldr	r3, [r2]
 1130 0052 0133     		adds	r3, r3, #1
 1131 0054 1360     		str	r3, [r2]
 1132              	.LBE335:
 1133              	.LBE334:
 138:source\asw/main.c ****     
 1134              		.loc 1 138 0
 1135 0056 012B     		cmp	r3, #1
 1136 0058 01D1     		bne	.L57
 138:source\asw/main.c ****     
 1137              		.loc 1 138 0 is_stmt 0 discriminator 1
 1138 005a FFF7FEFF 		bl	EE_cortex_mx_change_IRQ_stack
 1139              	.LVL93:
 1140              	.L57:
 1141              	.LBB336:
 1142              	.LBB337:
 191:Generated_Source\PSoC5/ErikaOS_cortex_mx_ee_cpu.inc **** #endif	/* !__KEIL__ */
 1143              		.loc 2 191 0 is_stmt 1 discriminator 3
 1144              		.syntax unified
 1145              	@ 191 "Generated_Source\PSoC5/ErikaOS_cortex_mx_ee_cpu.inc" 1
ARM GAS  C:\Users\zakis\AppData\Local\Temp\ccd2W9SZ.s 			page 37


 1146 005e 62B6     		cpsie i
 1147              	@ 0 "" 2
 1148              		.thumb
 1149              		.syntax unified
 1150              	.LBE337:
 1151              	.LBE336:
 138:source\asw/main.c ****     
 1152              		.loc 1 138 0 discriminator 3
 1153 0060 FFF7FEFF 		bl	ISR2_isr_pushButton
 1154              	.LVL94:
 1155              	.LBB338:
 1156              	.LBB339:
 211:Generated_Source\PSoC5/ErikaOS_cortex_mx_ee_cpu.inc **** #endif	/* !__KEIL__ */
 1157              		.loc 2 211 0 discriminator 3
 1158              		.syntax unified
 1159              	@ 211 "Generated_Source\PSoC5/ErikaOS_cortex_mx_ee_cpu.inc" 1
 1160 0064 72B6     		cpsid i
 1161              	@ 0 "" 2
 1162              	.LVL95:
 1163              		.thumb
 1164              		.syntax unified
 1165              	.LBE339:
 1166              	.LBE338:
 1167              	.LBB340:
 1168              	.LBB341:
 358:Generated_Source\PSoC5/ErikaOS_cortex_mx_ee_cpu.inc **** #else
 1169              		.loc 2 358 0 discriminator 3
 1170              		.syntax unified
 1171              	@ 358 "Generated_Source\PSoC5/ErikaOS_cortex_mx_ee_cpu.inc" 1
 1172 0066 84F31188 		MSR BASEPRI, r4
 1173              	@ 0 "" 2
 1174              	.LVL96:
 1175              		.thumb
 1176              		.syntax unified
 1177              	.LBE341:
 1178              	.LBE340:
 1179              	.LBB342:
 1180              	.LBB343:
 1181              		.loc 3 102 0 discriminator 3
 1182 006a FFF7FEFF 		bl	EE_IRQ_end_post_stub
 1183              	.LVL97:
 1184              	.LBE343:
 1185              	.LBE342:
 1186              	.LBB344:
 1187              	.LBB345:
  84:Generated_Source\PSoC5/ErikaOS_common_ee_irqstub.inc **** __INLINE__ void  EE_increment_IRQ_nesting_level(void) { ++EE_IRQ_nesting_level; }
 1188              		.loc 3 84 0 discriminator 3
 1189 006e 094A     		ldr	r2, .L60+8
 1190 0070 1368     		ldr	r3, [r2]
 1191 0072 013B     		subs	r3, r3, #1
 1192 0074 1360     		str	r3, [r2]
 1193              	.LBE345:
 1194              	.LBE344:
 138:source\asw/main.c ****     
 1195              		.loc 1 138 0 discriminator 3
 1196 0076 1BB9     		cbnz	r3, .L58
 138:source\asw/main.c ****     
ARM GAS  C:\Users\zakis\AppData\Local\Temp\ccd2W9SZ.s 			page 38


 1197              		.loc 1 138 0 is_stmt 0 discriminator 4
 1198 0078 FFF7FEFF 		bl	EE_cortex_mx_change_IRQ_stack_back
 1199              	.LVL98:
 1200              	.LBB346:
 1201              	.LBB347:
 1202              		.loc 4 68 0 is_stmt 1 discriminator 4
 1203 007c FFF7FEFF 		bl	EE_switch_context
 1204              	.LVL99:
 1205              	.L58:
 1206              	.LBE347:
 1207              	.LBE346:
 1208              	.LBB348:
 1209              	.LBB349:
 191:Generated_Source\PSoC5/ErikaOS_cortex_mx_ee_cpu.inc **** #endif	/* !__KEIL__ */
 1210              		.loc 2 191 0 discriminator 6
 1211              		.syntax unified
 1212              	@ 191 "Generated_Source\PSoC5/ErikaOS_cortex_mx_ee_cpu.inc" 1
 1213 0080 62B6     		cpsie i
 1214              	@ 0 "" 2
 1215              		.thumb
 1216              		.syntax unified
 1217              	.LBE349:
 1218              	.LBE348:
 138:source\asw/main.c ****     
 1219              		.loc 1 138 0 discriminator 6
 1220 0082 BDE81940 		pop	{r0, r3, r4, lr}
 1221              		.cfi_restore 14
 1222              		.cfi_restore 4
 1223              		.cfi_restore 3
 1224              		.cfi_restore 0
 1225              		.cfi_def_cfa_offset 0
 1226 0086 8546     		mov	sp, r0
 1227 0088 7047     		bx	lr
 1228              	.L61:
 1229 008a 00BF     		.align	2
 1230              	.L60:
 1231 008c 04ED00E0 		.word	-536810236
 1232 0090 20ED00E0 		.word	-536810208
 1233 0094 00000000 		.word	EE_IRQ_nesting_level
 1234              		.cfi_endproc
 1235              	.LFE178:
 1236              		.size	isr_pushButton, .-isr_pushButton
 1237              		.section	.text.ISR2_isr_DMA_MEM_UART,"ax",%progbits
 1238              		.align	2
 1239              		.global	ISR2_isr_DMA_MEM_UART
 1240              		.thumb
 1241              		.thumb_func
 1242              		.type	ISR2_isr_DMA_MEM_UART, %function
 1243              	ISR2_isr_DMA_MEM_UART:
 1244              	.LFB181:
 141:source\asw/main.c **** }
 142:source\asw/main.c **** 
 143:source\asw/main.c **** ISR2(isr_DMA_MEM_UART){
 1245              		.loc 1 143 0
 1246              		.cfi_startproc
 1247              		@ args = 0, pretend = 0, frame = 0
 1248              		@ frame_needed = 0, uses_anonymous_args = 0
ARM GAS  C:\Users\zakis\AppData\Local\Temp\ccd2W9SZ.s 			page 39


 1249 0000 08B5     		push	{r3, lr}
 1250              		.cfi_def_cfa_offset 8
 1251              		.cfi_offset 3, -8
 1252              		.cfi_offset 14, -4
 144:source\asw/main.c ****     
 145:source\asw/main.c ****     SetEvent(tsk_control, ev_sendFFT);
 1253              		.loc 1 145 0
 1254 0002 4021     		movs	r1, #64
 1255 0004 0220     		movs	r0, #2
 1256 0006 FFF7FEFF 		bl	EE_oo_SetEvent
 1257              	.LVL100:
 1258 000a 08BD     		pop	{r3, pc}
 1259              		.cfi_endproc
 1260              	.LFE181:
 1261              		.size	ISR2_isr_DMA_MEM_UART, .-ISR2_isr_DMA_MEM_UART
 1262              		.section	.text.isr_DMA_MEM_UART,"ax",%progbits
 1263              		.align	2
 1264              		.global	isr_DMA_MEM_UART
 1265              		.thumb
 1266              		.thumb_func
 1267              		.type	isr_DMA_MEM_UART, %function
 1268              	isr_DMA_MEM_UART:
 1269              	.LFB180:
 143:source\asw/main.c ****     
 1270              		.loc 1 143 0
 1271              		.cfi_startproc
 1272              		@ Stack Align: May be called with mis-aligned SP.
 1273              		@ args = 0, pretend = 0, frame = 0
 1274              		@ frame_needed = 0, uses_anonymous_args = 0
 1275 0000 6846     		mov	r0, sp
 1276              		.cfi_register 13, 0
 1277 0002 20F00701 		bic	r1, r0, #7
 1278 0006 8D46     		mov	sp, r1
 1279 0008 19B5     		push	{r0, r3, r4, lr}
 1280              		.cfi_def_cfa_offset 16
 1281              		.cfi_offset 13, -16
 1282              		.cfi_offset 3, -12
 1283              		.cfi_offset 4, -8
 1284              		.cfi_offset 14, -4
 1285              	.LVL101:
 1286              	.LBB374:
 1287              	.LBB375:
 211:Generated_Source\PSoC5/ErikaOS_cortex_mx_ee_cpu.inc **** #endif	/* !__KEIL__ */
 1288              		.loc 2 211 0
 1289              		.syntax unified
 1290              	@ 211 "Generated_Source\PSoC5/ErikaOS_cortex_mx_ee_cpu.inc" 1
 1291 000a 72B6     		cpsid i
 1292              	@ 0 "" 2
 1293              		.thumb
 1294              		.syntax unified
 1295              	.LBE375:
 1296              	.LBE374:
 1297              	.LBB376:
 1298              	.LBB377:
 325:Generated_Source\PSoC5/ErikaOS_cortex_mx_ee_cpu.inc **** #else
 1299              		.loc 2 325 0
 1300              		.syntax unified
ARM GAS  C:\Users\zakis\AppData\Local\Temp\ccd2W9SZ.s 			page 40


 1301              	@ 325 "Generated_Source\PSoC5/ErikaOS_cortex_mx_ee_cpu.inc" 1
 1302 000c EFF31184 		MRS r4, BASEPRI
 1303              	@ 0 "" 2
 1304              	.LVL102:
 1305              		.thumb
 1306              		.syntax unified
 1307              	.LBE377:
 1308              	.LBE376:
 1309              	.LBB378:
 1310              	.LBB379:
 372:Generated_Source\PSoC5/ErikaOS_cortex_mx_ee_cpu.inc ****   register EE_TYPEISR2PRIO prio = 0;
 1311              		.loc 2 372 0
 1312 0010 1E4B     		ldr	r3, .L70
 1313 0012 1B68     		ldr	r3, [r3]
 1314 0014 DBB2     		uxtb	r3, r3
 1315              	.LVL103:
 375:Generated_Source\PSoC5/ErikaOS_cortex_mx_ee_cpu.inc ****     vectact -= EE_CORTEX_MX_SYSTICK_EXC_NUM + 1;
 1316              		.loc 2 375 0
 1317 0016 0F2B     		cmp	r3, #15
 1318 0018 10D9     		bls	.L65
 376:Generated_Source\PSoC5/ErikaOS_cortex_mx_ee_cpu.inc ****     prio = NVIC_GET_PRI(vectact);
 1319              		.loc 2 376 0
 1320 001a 103B     		subs	r3, r3, #16
 1321              	.LVL104:
 377:Generated_Source\PSoC5/ErikaOS_cortex_mx_ee_cpu.inc ****   }
 1322              		.loc 2 377 0
 1323 001c 23F00302 		bic	r2, r3, #3
 1324 0020 02F16042 		add	r2, r2, #-536870912
 1325 0024 02F56442 		add	r2, r2, #58368
 1326 0028 1168     		ldr	r1, [r2]
 1327 002a DB00     		lsls	r3, r3, #3
 1328              	.LVL105:
 1329 002c 03F01803 		and	r3, r3, #24
 1330 0030 E022     		movs	r2, #224
 1331 0032 9A40     		lsls	r2, r2, r3
 1332 0034 0A40     		ands	r2, r2, r1
 1333 0036 22FA03F3 		lsr	r3, r2, r3
 1334              	.LVL106:
 1335 003a 06E0     		b	.L66
 1336              	.LVL107:
 1337              	.L65:
 380:Generated_Source\PSoC5/ErikaOS_cortex_mx_ee_cpu.inc ****     prio = NVIC_SYS_PRI3_R >> NVIC_SYS_PRI3_TICK_S;
 1338              		.loc 2 380 0
 1339 003c 0F2B     		cmp	r3, #15
 1340 003e 03D1     		bne	.L69
 1341              		.loc 2 381 0
 1342 0040 134B     		ldr	r3, .L70+4
 1343              	.LVL108:
 1344 0042 1B68     		ldr	r3, [r3]
 1345 0044 1B0E     		lsrs	r3, r3, #24
 1346              	.LVL109:
 1347 0046 00E0     		b	.L66
 1348              	.LVL110:
 1349              	.L69:
 373:Generated_Source\PSoC5/ErikaOS_cortex_mx_ee_cpu.inc **** 
 1350              		.loc 2 373 0
 1351 0048 0023     		movs	r3, #0
ARM GAS  C:\Users\zakis\AppData\Local\Temp\ccd2W9SZ.s 			page 41


 1352              	.LVL111:
 1353              	.L66:
 1354              	.LBE379:
 1355              	.LBE378:
 1356              	.LBB380:
 1357              	.LBB381:
 358:Generated_Source\PSoC5/ErikaOS_cortex_mx_ee_cpu.inc **** #else
 1358              		.loc 2 358 0
 1359              		.syntax unified
 1360              	@ 358 "Generated_Source\PSoC5/ErikaOS_cortex_mx_ee_cpu.inc" 1
 1361 004a 83F31188 		MSR BASEPRI, r3
 1362              	@ 0 "" 2
 1363              		.thumb
 1364              		.syntax unified
 1365              	.LBE381:
 1366              	.LBE380:
 1367              	.LBB382:
 1368              	.LBB383:
  85:Generated_Source\PSoC5/ErikaOS_common_ee_irqstub.inc **** /*  EE_std_enableIRQ_nested() and EE_std_disableIRQ_nested() must be defined in
 1369              		.loc 3 85 0
 1370 004e 114A     		ldr	r2, .L70+8
 1371 0050 1368     		ldr	r3, [r2]
 1372 0052 0133     		adds	r3, r3, #1
 1373 0054 1360     		str	r3, [r2]
 1374              	.LBE383:
 1375              	.LBE382:
 143:source\asw/main.c ****     
 1376              		.loc 1 143 0
 1377 0056 012B     		cmp	r3, #1
 1378 0058 01D1     		bne	.L67
 143:source\asw/main.c ****     
 1379              		.loc 1 143 0 is_stmt 0 discriminator 1
 1380 005a FFF7FEFF 		bl	EE_cortex_mx_change_IRQ_stack
 1381              	.LVL112:
 1382              	.L67:
 1383              	.LBB384:
 1384              	.LBB385:
 191:Generated_Source\PSoC5/ErikaOS_cortex_mx_ee_cpu.inc **** #endif	/* !__KEIL__ */
 1385              		.loc 2 191 0 is_stmt 1 discriminator 3
 1386              		.syntax unified
 1387              	@ 191 "Generated_Source\PSoC5/ErikaOS_cortex_mx_ee_cpu.inc" 1
 1388 005e 62B6     		cpsie i
 1389              	@ 0 "" 2
 1390              		.thumb
 1391              		.syntax unified
 1392              	.LBE385:
 1393              	.LBE384:
 143:source\asw/main.c ****     
 1394              		.loc 1 143 0 discriminator 3
 1395 0060 FFF7FEFF 		bl	ISR2_isr_DMA_MEM_UART
 1396              	.LVL113:
 1397              	.LBB386:
 1398              	.LBB387:
 211:Generated_Source\PSoC5/ErikaOS_cortex_mx_ee_cpu.inc **** #endif	/* !__KEIL__ */
 1399              		.loc 2 211 0 discriminator 3
 1400              		.syntax unified
 1401              	@ 211 "Generated_Source\PSoC5/ErikaOS_cortex_mx_ee_cpu.inc" 1
ARM GAS  C:\Users\zakis\AppData\Local\Temp\ccd2W9SZ.s 			page 42


 1402 0064 72B6     		cpsid i
 1403              	@ 0 "" 2
 1404              	.LVL114:
 1405              		.thumb
 1406              		.syntax unified
 1407              	.LBE387:
 1408              	.LBE386:
 1409              	.LBB388:
 1410              	.LBB389:
 358:Generated_Source\PSoC5/ErikaOS_cortex_mx_ee_cpu.inc **** #else
 1411              		.loc 2 358 0 discriminator 3
 1412              		.syntax unified
 1413              	@ 358 "Generated_Source\PSoC5/ErikaOS_cortex_mx_ee_cpu.inc" 1
 1414 0066 84F31188 		MSR BASEPRI, r4
 1415              	@ 0 "" 2
 1416              	.LVL115:
 1417              		.thumb
 1418              		.syntax unified
 1419              	.LBE389:
 1420              	.LBE388:
 1421              	.LBB390:
 1422              	.LBB391:
 1423              		.loc 3 102 0 discriminator 3
 1424 006a FFF7FEFF 		bl	EE_IRQ_end_post_stub
 1425              	.LVL116:
 1426              	.LBE391:
 1427              	.LBE390:
 1428              	.LBB392:
 1429              	.LBB393:
  84:Generated_Source\PSoC5/ErikaOS_common_ee_irqstub.inc **** __INLINE__ void  EE_increment_IRQ_nesting_level(void) { ++EE_IRQ_nesting_level; }
 1430              		.loc 3 84 0 discriminator 3
 1431 006e 094A     		ldr	r2, .L70+8
 1432 0070 1368     		ldr	r3, [r2]
 1433 0072 013B     		subs	r3, r3, #1
 1434 0074 1360     		str	r3, [r2]
 1435              	.LBE393:
 1436              	.LBE392:
 143:source\asw/main.c ****     
 1437              		.loc 1 143 0 discriminator 3
 1438 0076 1BB9     		cbnz	r3, .L68
 143:source\asw/main.c ****     
 1439              		.loc 1 143 0 is_stmt 0 discriminator 4
 1440 0078 FFF7FEFF 		bl	EE_cortex_mx_change_IRQ_stack_back
 1441              	.LVL117:
 1442              	.LBB394:
 1443              	.LBB395:
 1444              		.loc 4 68 0 is_stmt 1 discriminator 4
 1445 007c FFF7FEFF 		bl	EE_switch_context
 1446              	.LVL118:
 1447              	.L68:
 1448              	.LBE395:
 1449              	.LBE394:
 1450              	.LBB396:
 1451              	.LBB397:
 191:Generated_Source\PSoC5/ErikaOS_cortex_mx_ee_cpu.inc **** #endif	/* !__KEIL__ */
 1452              		.loc 2 191 0 discriminator 6
 1453              		.syntax unified
ARM GAS  C:\Users\zakis\AppData\Local\Temp\ccd2W9SZ.s 			page 43


 1454              	@ 191 "Generated_Source\PSoC5/ErikaOS_cortex_mx_ee_cpu.inc" 1
 1455 0080 62B6     		cpsie i
 1456              	@ 0 "" 2
 1457              		.thumb
 1458              		.syntax unified
 1459              	.LBE397:
 1460              	.LBE396:
 143:source\asw/main.c ****     
 1461              		.loc 1 143 0 discriminator 6
 1462 0082 BDE81940 		pop	{r0, r3, r4, lr}
 1463              		.cfi_restore 14
 1464              		.cfi_restore 4
 1465              		.cfi_restore 3
 1466              		.cfi_restore 0
 1467              		.cfi_def_cfa_offset 0
 1468 0086 8546     		mov	sp, r0
 1469 0088 7047     		bx	lr
 1470              	.L71:
 1471 008a 00BF     		.align	2
 1472              	.L70:
 1473 008c 04ED00E0 		.word	-536810236
 1474 0090 20ED00E0 		.word	-536810208
 1475 0094 00000000 		.word	EE_IRQ_nesting_level
 1476              		.cfi_endproc
 1477              	.LFE180:
 1478              		.size	isr_DMA_MEM_UART, .-isr_DMA_MEM_UART
 1479              		.section	.text.isr_DMA_FFT_UART,"ax",%progbits
 1480              		.align	2
 1481              		.global	isr_DMA_FFT_UART
 1482              		.thumb
 1483              		.thumb_func
 1484              		.type	isr_DMA_FFT_UART, %function
 1485              	isr_DMA_FFT_UART:
 1486              	.LFB182:
 146:source\asw/main.c ****     
 147:source\asw/main.c **** 
 148:source\asw/main.c **** }
 149:source\asw/main.c **** 
 150:source\asw/main.c **** ISR2(isr_DMA_FFT_UART){
 1487              		.loc 1 150 0
 1488              		.cfi_startproc
 1489              		@ Stack Align: May be called with mis-aligned SP.
 1490              		@ args = 0, pretend = 0, frame = 0
 1491              		@ frame_needed = 0, uses_anonymous_args = 0
 1492 0000 6846     		mov	r0, sp
 1493              		.cfi_register 13, 0
 1494 0002 20F00701 		bic	r1, r0, #7
 1495 0006 8D46     		mov	sp, r1
 1496 0008 19B5     		push	{r0, r3, r4, lr}
 1497              		.cfi_def_cfa_offset 16
 1498              		.cfi_offset 13, -16
 1499              		.cfi_offset 3, -12
 1500              		.cfi_offset 4, -8
 1501              		.cfi_offset 14, -4
 1502              	.LVL119:
 1503              	.LBB422:
 1504              	.LBB423:
ARM GAS  C:\Users\zakis\AppData\Local\Temp\ccd2W9SZ.s 			page 44


 211:Generated_Source\PSoC5/ErikaOS_cortex_mx_ee_cpu.inc **** #endif	/* !__KEIL__ */
 1505              		.loc 2 211 0
 1506              		.syntax unified
 1507              	@ 211 "Generated_Source\PSoC5/ErikaOS_cortex_mx_ee_cpu.inc" 1
 1508 000a 72B6     		cpsid i
 1509              	@ 0 "" 2
 1510              		.thumb
 1511              		.syntax unified
 1512              	.LBE423:
 1513              	.LBE422:
 1514              	.LBB424:
 1515              	.LBB425:
 325:Generated_Source\PSoC5/ErikaOS_cortex_mx_ee_cpu.inc **** #else
 1516              		.loc 2 325 0
 1517              		.syntax unified
 1518              	@ 325 "Generated_Source\PSoC5/ErikaOS_cortex_mx_ee_cpu.inc" 1
 1519 000c EFF31184 		MRS r4, BASEPRI
 1520              	@ 0 "" 2
 1521              	.LVL120:
 1522              		.thumb
 1523              		.syntax unified
 1524              	.LBE425:
 1525              	.LBE424:
 1526              	.LBB426:
 1527              	.LBB427:
 372:Generated_Source\PSoC5/ErikaOS_cortex_mx_ee_cpu.inc ****   register EE_TYPEISR2PRIO prio = 0;
 1528              		.loc 2 372 0
 1529 0010 1D4B     		ldr	r3, .L78
 1530 0012 1B68     		ldr	r3, [r3]
 1531 0014 DBB2     		uxtb	r3, r3
 1532              	.LVL121:
 375:Generated_Source\PSoC5/ErikaOS_cortex_mx_ee_cpu.inc ****     vectact -= EE_CORTEX_MX_SYSTICK_EXC_NUM + 1;
 1533              		.loc 2 375 0
 1534 0016 0F2B     		cmp	r3, #15
 1535 0018 10D9     		bls	.L73
 376:Generated_Source\PSoC5/ErikaOS_cortex_mx_ee_cpu.inc ****     prio = NVIC_GET_PRI(vectact);
 1536              		.loc 2 376 0
 1537 001a 103B     		subs	r3, r3, #16
 1538              	.LVL122:
 377:Generated_Source\PSoC5/ErikaOS_cortex_mx_ee_cpu.inc ****   }
 1539              		.loc 2 377 0
 1540 001c 23F00302 		bic	r2, r3, #3
 1541 0020 02F16042 		add	r2, r2, #-536870912
 1542 0024 02F56442 		add	r2, r2, #58368
 1543 0028 1168     		ldr	r1, [r2]
 1544 002a DB00     		lsls	r3, r3, #3
 1545              	.LVL123:
 1546 002c 03F01803 		and	r3, r3, #24
 1547 0030 E022     		movs	r2, #224
 1548 0032 9A40     		lsls	r2, r2, r3
 1549 0034 0A40     		ands	r2, r2, r1
 1550 0036 22FA03F3 		lsr	r3, r2, r3
 1551              	.LVL124:
 1552 003a 06E0     		b	.L74
 1553              	.LVL125:
 1554              	.L73:
 380:Generated_Source\PSoC5/ErikaOS_cortex_mx_ee_cpu.inc ****     prio = NVIC_SYS_PRI3_R >> NVIC_SYS_PRI3_TICK_S;
ARM GAS  C:\Users\zakis\AppData\Local\Temp\ccd2W9SZ.s 			page 45


 1555              		.loc 2 380 0
 1556 003c 0F2B     		cmp	r3, #15
 1557 003e 03D1     		bne	.L77
 1558              		.loc 2 381 0
 1559 0040 124B     		ldr	r3, .L78+4
 1560              	.LVL126:
 1561 0042 1B68     		ldr	r3, [r3]
 1562 0044 1B0E     		lsrs	r3, r3, #24
 1563              	.LVL127:
 1564 0046 00E0     		b	.L74
 1565              	.LVL128:
 1566              	.L77:
 373:Generated_Source\PSoC5/ErikaOS_cortex_mx_ee_cpu.inc **** 
 1567              		.loc 2 373 0
 1568 0048 0023     		movs	r3, #0
 1569              	.LVL129:
 1570              	.L74:
 1571              	.LBE427:
 1572              	.LBE426:
 1573              	.LBB428:
 1574              	.LBB429:
 358:Generated_Source\PSoC5/ErikaOS_cortex_mx_ee_cpu.inc **** #else
 1575              		.loc 2 358 0
 1576              		.syntax unified
 1577              	@ 358 "Generated_Source\PSoC5/ErikaOS_cortex_mx_ee_cpu.inc" 1
 1578 004a 83F31188 		MSR BASEPRI, r3
 1579              	@ 0 "" 2
 1580              		.thumb
 1581              		.syntax unified
 1582              	.LBE429:
 1583              	.LBE428:
 1584              	.LBB430:
 1585              	.LBB431:
  85:Generated_Source\PSoC5/ErikaOS_common_ee_irqstub.inc **** /*  EE_std_enableIRQ_nested() and EE_std_disableIRQ_nested() must be defined in
 1586              		.loc 3 85 0
 1587 004e 104A     		ldr	r2, .L78+8
 1588 0050 1368     		ldr	r3, [r2]
 1589 0052 0133     		adds	r3, r3, #1
 1590 0054 1360     		str	r3, [r2]
 1591              	.LBE431:
 1592              	.LBE430:
 1593              		.loc 1 150 0
 1594 0056 012B     		cmp	r3, #1
 1595 0058 01D1     		bne	.L75
 1596              		.loc 1 150 0 is_stmt 0 discriminator 1
 1597 005a FFF7FEFF 		bl	EE_cortex_mx_change_IRQ_stack
 1598              	.LVL130:
 1599              	.L75:
 1600              	.LBB432:
 1601              	.LBB433:
 191:Generated_Source\PSoC5/ErikaOS_cortex_mx_ee_cpu.inc **** #endif	/* !__KEIL__ */
 1602              		.loc 2 191 0 is_stmt 1 discriminator 3
 1603              		.syntax unified
 1604              	@ 191 "Generated_Source\PSoC5/ErikaOS_cortex_mx_ee_cpu.inc" 1
 1605 005e 62B6     		cpsie i
 1606              	@ 0 "" 2
 1607              		.thumb
ARM GAS  C:\Users\zakis\AppData\Local\Temp\ccd2W9SZ.s 			page 46


 1608              		.syntax unified
 1609              	.LBE433:
 1610              	.LBE432:
 1611              	.LBB434:
 1612              	.LBB435:
 211:Generated_Source\PSoC5/ErikaOS_cortex_mx_ee_cpu.inc **** #endif	/* !__KEIL__ */
 1613              		.loc 2 211 0 discriminator 3
 1614              		.syntax unified
 1615              	@ 211 "Generated_Source\PSoC5/ErikaOS_cortex_mx_ee_cpu.inc" 1
 1616 0060 72B6     		cpsid i
 1617              	@ 0 "" 2
 1618              	.LVL131:
 1619              		.thumb
 1620              		.syntax unified
 1621              	.LBE435:
 1622              	.LBE434:
 1623              	.LBB436:
 1624              	.LBB437:
 358:Generated_Source\PSoC5/ErikaOS_cortex_mx_ee_cpu.inc **** #else
 1625              		.loc 2 358 0 discriminator 3
 1626              		.syntax unified
 1627              	@ 358 "Generated_Source\PSoC5/ErikaOS_cortex_mx_ee_cpu.inc" 1
 1628 0062 84F31188 		MSR BASEPRI, r4
 1629              	@ 0 "" 2
 1630              	.LVL132:
 1631              		.thumb
 1632              		.syntax unified
 1633              	.LBE437:
 1634              	.LBE436:
 1635              	.LBB438:
 1636              	.LBB439:
 1637              		.loc 3 102 0 discriminator 3
 1638 0066 FFF7FEFF 		bl	EE_IRQ_end_post_stub
 1639              	.LVL133:
 1640              	.LBE439:
 1641              	.LBE438:
 1642              	.LBB440:
 1643              	.LBB441:
  84:Generated_Source\PSoC5/ErikaOS_common_ee_irqstub.inc **** __INLINE__ void  EE_increment_IRQ_nesting_level(void) { ++EE_IRQ_nesting_level; }
 1644              		.loc 3 84 0 discriminator 3
 1645 006a 094A     		ldr	r2, .L78+8
 1646 006c 1368     		ldr	r3, [r2]
 1647 006e 013B     		subs	r3, r3, #1
 1648 0070 1360     		str	r3, [r2]
 1649              	.LBE441:
 1650              	.LBE440:
 1651              		.loc 1 150 0 discriminator 3
 1652 0072 1BB9     		cbnz	r3, .L76
 1653              		.loc 1 150 0 is_stmt 0 discriminator 4
 1654 0074 FFF7FEFF 		bl	EE_cortex_mx_change_IRQ_stack_back
 1655              	.LVL134:
 1656              	.LBB442:
 1657              	.LBB443:
 1658              		.loc 4 68 0 is_stmt 1 discriminator 4
 1659 0078 FFF7FEFF 		bl	EE_switch_context
 1660              	.LVL135:
 1661              	.L76:
ARM GAS  C:\Users\zakis\AppData\Local\Temp\ccd2W9SZ.s 			page 47


 1662              	.LBE443:
 1663              	.LBE442:
 1664              	.LBB444:
 1665              	.LBB445:
 191:Generated_Source\PSoC5/ErikaOS_cortex_mx_ee_cpu.inc **** #endif	/* !__KEIL__ */
 1666              		.loc 2 191 0 discriminator 6
 1667              		.syntax unified
 1668              	@ 191 "Generated_Source\PSoC5/ErikaOS_cortex_mx_ee_cpu.inc" 1
 1669 007c 62B6     		cpsie i
 1670              	@ 0 "" 2
 1671              		.thumb
 1672              		.syntax unified
 1673              	.LBE445:
 1674              	.LBE444:
 1675              		.loc 1 150 0 discriminator 6
 1676 007e BDE81940 		pop	{r0, r3, r4, lr}
 1677              		.cfi_restore 14
 1678              		.cfi_restore 4
 1679              		.cfi_restore 3
 1680              		.cfi_restore 0
 1681              		.cfi_def_cfa_offset 0
 1682 0082 8546     		mov	sp, r0
 1683 0084 7047     		bx	lr
 1684              	.L79:
 1685 0086 00BF     		.align	2
 1686              	.L78:
 1687 0088 04ED00E0 		.word	-536810236
 1688 008c 20ED00E0 		.word	-536810208
 1689 0090 00000000 		.word	EE_IRQ_nesting_level
 1690              		.cfi_endproc
 1691              	.LFE182:
 1692              		.size	isr_DMA_FFT_UART, .-isr_DMA_FFT_UART
 1693              		.section	.text.ISR2_isr_DMA_FFT_UART,"ax",%progbits
 1694              		.align	2
 1695              		.global	ISR2_isr_DMA_FFT_UART
 1696              		.thumb
 1697              		.thumb_func
 1698              		.type	ISR2_isr_DMA_FFT_UART, %function
 1699              	ISR2_isr_DMA_FFT_UART:
 1700              	.LFB183:
 1701              		.loc 1 150 0
 1702              		.cfi_startproc
 1703              		@ args = 0, pretend = 0, frame = 0
 1704              		@ frame_needed = 0, uses_anonymous_args = 0
 1705              		@ link register save eliminated.
 1706 0000 7047     		bx	lr
 1707              		.cfi_endproc
 1708              	.LFE183:
 1709              		.size	ISR2_isr_DMA_FFT_UART, .-ISR2_isr_DMA_FFT_UART
 1710              		.comm	movementDetector,5,4
 1711 0002 00BF     		.text
 1712              	.Letext0:
 1713              		.file 6 "c:\\program files (x86)\\cypress\\psoc creator\\4.4\\psoc creator\\import\\gnu\\arm\\5.4.
 1714              		.file 7 "c:\\program files (x86)\\cypress\\psoc creator\\4.4\\psoc creator\\import\\gnu\\arm\\5.4.
 1715              		.file 8 "Generated_Source\\PSoC5/ErikaOS_common_ee_types.inc"
 1716              		.file 9 "Generated_Source\\PSoC5/ErikaOS_ee_oo_common.inc"
 1717              		.file 10 ".\\source\\bsw/global.h"
ARM GAS  C:\Users\zakis\AppData\Local\Temp\ccd2W9SZ.s 			page 48


 1718              		.file 11 "source\\asw\\detector.h"
 1719              		.file 12 "Generated_Source\\PSoC5/ErikaOS_ee_oo_intfunc.inc"
 1720              		.file 13 "Generated_Source\\PSoC5/ErikaOS_cortex_mx_ee_context.inc"
 1721              		.file 14 "Generated_Source\\PSoC5/ErikaOS_common_ee_primitives.inc"
 1722              		.file 15 "Generated_Source\\PSoC5/core_cm3.h"
 1723              		.file 16 "Generated_Source\\PSoC5/ErikaOS_ee_oo_kernel.inc"
 1724              		.file 17 "Generated_Source\\PSoC5/ErikaOS_ee_oo_irq.inc"
 1725              		.file 18 "Generated_Source\\PSoC5/ErikaOS_cortex_mx_ee_irq.inc"
 1726              		.file 19 "Generated_Source\\PSoC5/UART_LOG.h"