ARM GAS  C:\Users\zakis\AppData\Local\Temp\ccU0g5MZ.s 			page 1


   1              		.syntax unified
   2              		.cpu cortex-m3
   3              		.fpu softvfp
   4              		.eabi_attribute 20, 1
   5              		.eabi_attribute 21, 1
   6              		.eabi_attribute 23, 3
   7              		.eabi_attribute 24, 1
   8              		.eabi_attribute 25, 1
   9              		.eabi_attribute 26, 1
  10              		.eabi_attribute 30, 1
  11              		.eabi_attribute 34, 1
  12              		.eabi_attribute 18, 4
  13              		.thumb
  14              		.syntax unified
  15              		.file	"detector.c"
  16              		.text
  17              	.Ltext0:
  18              		.cfi_sections	.debug_frame
  19              		.section	.text.DETECTOR_initDrivers,"ax",%progbits
  20              		.align	2
  21              		.global	DETECTOR_initDrivers
  22              		.thumb
  23              		.thumb_func
  24              		.type	DETECTOR_initDrivers, %function
  25              	DETECTOR_initDrivers:
  26              	.LFB167:
  27              		.file 1 "source\\asw\\detector.c"
   1:source\asw/detector.c **** /**
   2:source\asw/detector.c **** * \brief Implements the Reaction Game logic
   3:source\asw/detector.c **** *
   4:source\asw/detector.c **** * \copyright Copyright ©2016
   5:source\asw/detector.c **** * Department of electrical engineering and information technology, Hochschule Darmstadt - Universit
   6:source\asw/detector.c **** * Permission to use, copy, modify, and distribute this software and its documentation for education
   7:source\asw/detector.c **** * (unless permitted by h_da) and official h_da projects, is hereby granted for enrolled students of
   8:source\asw/detector.c **** * this paragraph and the following paragraph appear in all copies, modifications, and distributions
   9:source\asw/detector.c **** * Contact Prof.Dr.-Ing. Peter Fromm, peter.fromm@h-da.de, Birkenweg 8 64295 Darmstadt - GERMANY for
  10:source\asw/detector.c **** *
  11:source\asw/detector.c **** * \warning This software is a PROTOTYPE version and is not designed or intended for use in producti
  12:source\asw/detector.c **** * The user represents and warrants that it will NOT use or redistribute the Software for such purpo
  13:source\asw/detector.c **** * This prototype is for research purposes only. This software is provided "AS IS," without a warran
  14:source\asw/detector.c **** */
  15:source\asw/detector.c **** 
  16:source\asw/detector.c **** /*****************************************************************************/
  17:source\asw/detector.c **** /* Include files                                                             */
  18:source\asw/detector.c **** /*****************************************************************************/
  19:source\asw/detector.c **** 
  20:source\asw/detector.c **** 
  21:source\asw/detector.c **** #include "project.h"
  22:source\asw/detector.c **** #include "detector.h"
  23:source\asw/detector.c **** #include "uart.h"
  24:source\asw/detector.c **** #include "dma.h"
  25:source\asw/detector.c **** #include "dac_adc.h"
  26:source\asw/detector.c **** #include "led.h"
  27:source\asw/detector.c **** #include "uart.h"
  28:source\asw/detector.c **** 
  29:source\asw/detector.c **** #include "fft_application.h"
  30:source\asw/detector.c **** 
ARM GAS  C:\Users\zakis\AppData\Local\Temp\ccU0g5MZ.s 			page 2


  31:source\asw/detector.c **** /*****************************************************************************/
  32:source\asw/detector.c **** /* Local pre-processor symbols/macros ('#define')                            */
  33:source\asw/detector.c **** /*****************************************************************************/
  34:source\asw/detector.c **** 
  35:source\asw/detector.c **** /*****************************************************************************/
  36:source\asw/detector.c **** /* Global variable definitions (declared in header file with 'extern')       */
  37:source\asw/detector.c **** /*****************************************************************************/
  38:source\asw/detector.c **** 
  39:source\asw/detector.c **** /*****************************************************************************/
  40:source\asw/detector.c **** /* Local type definitions ('typedef')                                        */
  41:source\asw/detector.c **** /*****************************************************************************/
  42:source\asw/detector.c **** 
  43:source\asw/detector.c **** /*****************************************************************************/
  44:source\asw/detector.c **** /* Local variable definitions ('static')                                     */
  45:source\asw/detector.c **** /*****************************************************************************/
  46:source\asw/detector.c **** 
  47:source\asw/detector.c **** /**
  48:source\asw/detector.c ****  * @brief Variable representing the clock frequency for the reaction game module.
  49:source\asw/detector.c ****  */
  50:source\asw/detector.c **** 
  51:source\asw/detector.c **** 
  52:source\asw/detector.c **** /*****************************************************************************/
  53:source\asw/detector.c **** /* Local function prototypes ('static')                                      */
  54:source\asw/detector.c **** /*****************************************************************************/
  55:source\asw/detector.c **** CFAR_input_t cfarInput;
  56:source\asw/detector.c **** 
  57:source\asw/detector.c **** CFAR_output_t cfarOutput; 
  58:source\asw/detector.c **** 
  59:source\asw/detector.c **** /*****************************************************************************/
  60:source\asw/detector.c **** /* Function implementation - global ('extern') and local ('static')          */
  61:source\asw/detector.c **** /*****************************************************************************/
  62:source\asw/detector.c **** 
  63:source\asw/detector.c **** // INIT all low level drivers
  64:source\asw/detector.c **** RC_t DETECTOR_initDrivers(){
  28              		.loc 1 64 0
  29              		.cfi_startproc
  30              		@ args = 0, pretend = 0, frame = 0
  31              		@ frame_needed = 0, uses_anonymous_args = 0
  32 0000 08B5     		push	{r3, lr}
  33              		.cfi_def_cfa_offset 8
  34              		.cfi_offset 3, -8
  35              		.cfi_offset 14, -4
  65:source\asw/detector.c ****     UART_init();
  36              		.loc 1 65 0
  37 0002 FFF7FEFF 		bl	UART_init
  38              	.LVL0:
  66:source\asw/detector.c ****     DMA_Init();
  39              		.loc 1 66 0
  40 0006 FFF7FEFF 		bl	DMA_Init
  41              	.LVL1:
  67:source\asw/detector.c ****     ADC_Init();
  42              		.loc 1 67 0
  43 000a FFF7FEFF 		bl	ADC_Init
  44              	.LVL2:
  68:source\asw/detector.c ****     //DAC_Init();
  69:source\asw/detector.c **** 
  70:source\asw/detector.c ****     return RC_SUCCESS;
ARM GAS  C:\Users\zakis\AppData\Local\Temp\ccU0g5MZ.s 			page 3


  71:source\asw/detector.c **** }
  45              		.loc 1 71 0
  46 000e 0020     		movs	r0, #0
  47 0010 08BD     		pop	{r3, pc}
  48              		.cfi_endproc
  49              	.LFE167:
  50              		.size	DETECTOR_initDrivers, .-DETECTOR_initDrivers
  51 0012 00BF     		.section	.text.DETECTOR_setLedState,"ax",%progbits
  52              		.align	2
  53              		.global	DETECTOR_setLedState
  54              		.thumb
  55              		.thumb_func
  56              		.type	DETECTOR_setLedState, %function
  57              	DETECTOR_setLedState:
  58              	.LFB169:
  72:source\asw/detector.c **** 
  73:source\asw/detector.c **** // Init Detector object attributes and drivers used by the object
  74:source\asw/detector.c **** RC_t DETECTOR_init(Detector_t* detector){
  75:source\asw/detector.c ****     DETECTOR_initDrivers();
  76:source\asw/detector.c ****     
  77:source\asw/detector.c ****     detector->detectorState = IDLE;
  78:source\asw/detector.c ****     DETECTOR_setLedState(IDLE);
  79:source\asw/detector.c ****     
  80:source\asw/detector.c ****     detector->numberOfTransfers = 0;
  81:source\asw/detector.c ****     detector->samplingFinished = FALSE;
  82:source\asw/detector.c ****     detector->readyToSend = FALSE;
  83:source\asw/detector.c ****     detector->memoryToUARTFinished = FALSE;
  84:source\asw/detector.c ****     
  85:source\asw/detector.c ****     CFAR_init(&cfarInput);
  86:source\asw/detector.c ****     
  87:source\asw/detector.c ****     return RC_SUCCESS;    
  88:source\asw/detector.c **** }
  89:source\asw/detector.c **** 
  90:source\asw/detector.c **** RC_t DETECTOR_setLedState(States_t state){
  59              		.loc 1 90 0
  60              		.cfi_startproc
  61              		@ args = 0, pretend = 0, frame = 0
  62              		@ frame_needed = 0, uses_anonymous_args = 0
  63              	.LVL3:
  64 0000 08B5     		push	{r3, lr}
  65              		.cfi_def_cfa_offset 8
  66              		.cfi_offset 3, -8
  67              		.cfi_offset 14, -4
  91:source\asw/detector.c ****     switch (state){
  68              		.loc 1 91 0
  69 0002 0128     		cmp	r0, #1
  70 0004 08D0     		beq	.L5
  71 0006 10B1     		cbz	r0, .L6
  72 0008 0228     		cmp	r0, #2
  73 000a 0AD0     		beq	.L7
  74 000c 0DE0     		b	.L4
  75              	.L6:
  92:source\asw/detector.c ****         case (IDLE): {
  93:source\asw/detector.c ****             //LED_Set(LED_ALL, LED_OFF);
  94:source\asw/detector.c ****             LED_Set(LED_RED, LED_ON);
  76              		.loc 1 94 0
  77 000e 0121     		movs	r1, #1
ARM GAS  C:\Users\zakis\AppData\Local\Temp\ccU0g5MZ.s 			page 4


  78 0010 0020     		movs	r0, #0
  79              	.LVL4:
  80 0012 FFF7FEFF 		bl	LED_Set
  81              	.LVL5:
  95:source\asw/detector.c ****             
  96:source\asw/detector.c ****         }
  97:source\asw/detector.c ****         break;
  82              		.loc 1 97 0
  83 0016 08E0     		b	.L4
  84              	.LVL6:
  85              	.L5:
  98:source\asw/detector.c ****         
  99:source\asw/detector.c ****         case (SAMPLING): {
 100:source\asw/detector.c ****             //LED_Set(LED_ALL, LED_OFF);
 101:source\asw/detector.c ****             //LED_Set(LED_ORANGE, LED_ON);
 102:source\asw/detector.c ****             LED_Set(LED_RED, LED_OFF);
  86              		.loc 1 102 0
  87 0018 0021     		movs	r1, #0
  88 001a 0846     		mov	r0, r1
  89              	.LVL7:
  90 001c FFF7FEFF 		bl	LED_Set
  91              	.LVL8:
 103:source\asw/detector.c ****         }
 104:source\asw/detector.c ****         break;
  92              		.loc 1 104 0
  93 0020 03E0     		b	.L4
  94              	.LVL9:
  95              	.L7:
 105:source\asw/detector.c ****         
 106:source\asw/detector.c ****         case (UART_TRANSFER): {
 107:source\asw/detector.c ****             //LED_Set(LED_ALL, LED_OFF);
 108:source\asw/detector.c ****             //LED_Set(LED_GREEN, LED_ON);
 109:source\asw/detector.c ****             LED_Set(LED_RED, LED_OFF);
  96              		.loc 1 109 0
  97 0022 0021     		movs	r1, #0
  98 0024 0846     		mov	r0, r1
  99              	.LVL10:
 100 0026 FFF7FEFF 		bl	LED_Set
 101              	.LVL11:
 102              	.L4:
 110:source\asw/detector.c ****         }
 111:source\asw/detector.c ****         break;
 112:source\asw/detector.c ****     }
 113:source\asw/detector.c ****     
 114:source\asw/detector.c ****     return RC_SUCCESS;
 115:source\asw/detector.c **** }
 103              		.loc 1 115 0
 104 002a 0020     		movs	r0, #0
 105 002c 08BD     		pop	{r3, pc}
 106              		.cfi_endproc
 107              	.LFE169:
 108              		.size	DETECTOR_setLedState, .-DETECTOR_setLedState
 109 002e 00BF     		.section	.text.DETECTOR_init,"ax",%progbits
 110              		.align	2
 111              		.global	DETECTOR_init
 112              		.thumb
 113              		.thumb_func
ARM GAS  C:\Users\zakis\AppData\Local\Temp\ccU0g5MZ.s 			page 5


 114              		.type	DETECTOR_init, %function
 115              	DETECTOR_init:
 116              	.LFB168:
  74:source\asw/detector.c ****     DETECTOR_initDrivers();
 117              		.loc 1 74 0
 118              		.cfi_startproc
 119              		@ args = 0, pretend = 0, frame = 0
 120              		@ frame_needed = 0, uses_anonymous_args = 0
 121              	.LVL12:
 122 0000 38B5     		push	{r3, r4, r5, lr}
 123              		.cfi_def_cfa_offset 16
 124              		.cfi_offset 3, -16
 125              		.cfi_offset 4, -12
 126              		.cfi_offset 5, -8
 127              		.cfi_offset 14, -4
 128 0002 0546     		mov	r5, r0
  75:source\asw/detector.c ****     
 129              		.loc 1 75 0
 130 0004 FFF7FEFF 		bl	DETECTOR_initDrivers
 131              	.LVL13:
  77:source\asw/detector.c ****     DETECTOR_setLedState(IDLE);
 132              		.loc 1 77 0
 133 0008 0024     		movs	r4, #0
 134 000a 2C70     		strb	r4, [r5]
  78:source\asw/detector.c ****     
 135              		.loc 1 78 0
 136 000c 2046     		mov	r0, r4
 137 000e FFF7FEFF 		bl	DETECTOR_setLedState
 138              	.LVL14:
  80:source\asw/detector.c ****     detector->samplingFinished = FALSE;
 139              		.loc 1 80 0
 140 0012 6C70     		strb	r4, [r5, #1]
  81:source\asw/detector.c ****     detector->readyToSend = FALSE;
 141              		.loc 1 81 0
 142 0014 AC70     		strb	r4, [r5, #2]
  82:source\asw/detector.c ****     detector->memoryToUARTFinished = FALSE;
 143              		.loc 1 82 0
 144 0016 EC70     		strb	r4, [r5, #3]
  83:source\asw/detector.c ****     
 145              		.loc 1 83 0
 146 0018 2C71     		strb	r4, [r5, #4]
  85:source\asw/detector.c ****     
 147              		.loc 1 85 0
 148 001a 0248     		ldr	r0, .L11
 149 001c FFF7FEFF 		bl	CFAR_init
 150              	.LVL15:
  88:source\asw/detector.c **** 
 151              		.loc 1 88 0
 152 0020 2046     		mov	r0, r4
 153 0022 38BD     		pop	{r3, r4, r5, pc}
 154              	.LVL16:
 155              	.L12:
 156              		.align	2
 157              	.L11:
 158 0024 00000000 		.word	cfarInput
 159              		.cfi_endproc
 160              	.LFE168:
ARM GAS  C:\Users\zakis\AppData\Local\Temp\ccU0g5MZ.s 			page 6


 161              		.size	DETECTOR_init, .-DETECTOR_init
 162              		.section	.text.DETECTOR_processEvents,"ax",%progbits
 163              		.align	2
 164              		.global	DETECTOR_processEvents
 165              		.thumb
 166              		.thumb_func
 167              		.type	DETECTOR_processEvents, %function
 168              	DETECTOR_processEvents:
 169              	.LFB170:
 116:source\asw/detector.c **** 
 117:source\asw/detector.c **** // Process events as they get triggered based on a State Machine Architecture
 118:source\asw/detector.c **** RC_t DETECTOR_processEvents(Detector_t* detector, EventMaskType ev){
 170              		.loc 1 118 0
 171              		.cfi_startproc
 172              		@ args = 0, pretend = 0, frame = 0
 173              		@ frame_needed = 0, uses_anonymous_args = 0
 174              	.LVL17:
 175 0000 2DE9F843 		push	{r3, r4, r5, r6, r7, r8, r9, lr}
 176              		.cfi_def_cfa_offset 32
 177              		.cfi_offset 3, -32
 178              		.cfi_offset 4, -28
 179              		.cfi_offset 5, -24
 180              		.cfi_offset 6, -20
 181              		.cfi_offset 7, -16
 182              		.cfi_offset 8, -12
 183              		.cfi_offset 9, -8
 184              		.cfi_offset 14, -4
 185 0004 8146     		mov	r9, r0
 186 0006 8846     		mov	r8, r1
 119:source\asw/detector.c ****     
 120:source\asw/detector.c ****             switch (detector -> detectorState){
 187              		.loc 1 120 0
 188 0008 0378     		ldrb	r3, [r0]	@ zero_extendqisi2
 189 000a 012B     		cmp	r3, #1
 190 000c 14D0     		beq	.L15
 191 000e 13B1     		cbz	r3, .L16
 192 0010 022B     		cmp	r3, #2
 193 0012 75D0     		beq	.L17
 194 0014 D5E0     		b	.L14
 195              	.L16:
 121:source\asw/detector.c ****             /*  IDLE states waits for the button to get pushed.
 122:source\asw/detector.c ****             *   
 123:source\asw/detector.c ****             *   ev_pushButton:          Triggered when button is pressed. The event turns ON the
 124:source\asw/detector.c ****             *                               ADC, DAC, and DMA modules and sampling is started and d
 125:source\asw/detector.c ****             *                               transferred from ADC output to a memory location with t
 126:source\asw/detector.c ****             *                               DMA module. State changes from IDLE to SAMPLING
 127:source\asw/detector.c ****             */
 128:source\asw/detector.c ****             case (IDLE):
 129:source\asw/detector.c ****             {   
 130:source\asw/detector.c ****                 if (ev & ev_pushButton){
 196              		.loc 1 130 0
 197 0016 11F0010F 		tst	r1, #1
 198 001a 00F0D280 		beq	.L14
 131:source\asw/detector.c ****   
 132:source\asw/detector.c ****                     DMA_Set(DMA_ADC_TO_MEMORY, DMA_ON);
 199              		.loc 1 132 0
 200 001e 0121     		movs	r1, #1
ARM GAS  C:\Users\zakis\AppData\Local\Temp\ccU0g5MZ.s 			page 7


 201              	.LVL18:
 202 0020 0020     		movs	r0, #0
 203              	.LVL19:
 204 0022 FFF7FEFF 		bl	DMA_Set
 205              	.LVL20:
 133:source\asw/detector.c ****                     //DAC_Set(DAC_ON);
 134:source\asw/detector.c ****                     ADC_Set(ADC_ON);
 206              		.loc 1 134 0
 207 0026 0120     		movs	r0, #1
 208 0028 FFF7FEFF 		bl	ADC_Set
 209              	.LVL21:
 135:source\asw/detector.c ****                     
 136:source\asw/detector.c ****                     detector -> detectorState = SAMPLING;
 210              		.loc 1 136 0
 211 002c 0120     		movs	r0, #1
 212 002e 89F80000 		strb	r0, [r9]
 137:source\asw/detector.c ****                     DETECTOR_setLedState(SAMPLING);
 213              		.loc 1 137 0
 214 0032 FFF7FEFF 		bl	DETECTOR_setLedState
 215              	.LVL22:
 216 0036 C4E0     		b	.L14
 217              	.LVL23:
 218              	.L15:
 138:source\asw/detector.c ****                     
 139:source\asw/detector.c ****                 }
 140:source\asw/detector.c ****             }
 141:source\asw/detector.c ****             break;
 142:source\asw/detector.c ****             
 143:source\asw/detector.c ****             /*  SAMPLING state waits continously samples the data and waits for a trigger character
 144:source\asw/detector.c ****             *   ev_sReceived:           Triggered when UART receives an 's'. Enables a flag to indi
 145:source\asw/detector.c ****             *                               can be sent 
 146:source\asw/detector.c ****             *   ev_samplingFinished:    Triggered when ADC finishes sampling. If external system is
 147:source\asw/detector.c ****             *                               existing data is discarded and another event is trigger
 148:source\asw/detector.c ****             *   ev_reSample:            Triggered when sampling needs to be restarted.
 149:source\asw/detector.c ****             *   ev_send:                Triggered when sampling is finished and external system is 
 150:source\asw/detector.c ****                                             Calculate FFT and CA-CFAR. State changes from SAMPLING 
 151:source\asw/detector.c ****             */
 152:source\asw/detector.c ****             case (SAMPLING):
 153:source\asw/detector.c ****             {
 154:source\asw/detector.c **** 
 155:source\asw/detector.c ****                 
 156:source\asw/detector.c ****                 
 157:source\asw/detector.c ****                 if (ev & ev_sReceived){
 219              		.loc 1 157 0
 220 0038 11F0020F 		tst	r1, #2
 221 003c 01D0     		beq	.L18
 158:source\asw/detector.c ****                     
 159:source\asw/detector.c ****                     detector -> readyToSend = TRUE;
 222              		.loc 1 159 0
 223 003e 0123     		movs	r3, #1
 224 0040 C370     		strb	r3, [r0, #3]
 225              	.L18:
 160:source\asw/detector.c ****                 }
 161:source\asw/detector.c ****                 if (ev & ev_samplingFinished){
 226              		.loc 1 161 0
 227 0042 18F0040F 		tst	r8, #4
 228 0046 15D0     		beq	.L19
ARM GAS  C:\Users\zakis\AppData\Local\Temp\ccU0g5MZ.s 			page 8


 162:source\asw/detector.c ****                     
 163:source\asw/detector.c ****                     DMA_Set(DMA_ADC_TO_MEMORY, DMA_OFF);
 229              		.loc 1 163 0
 230 0048 0021     		movs	r1, #0
 231              	.LVL24:
 232 004a 0846     		mov	r0, r1
 233              	.LVL25:
 234 004c FFF7FEFF 		bl	DMA_Set
 235              	.LVL26:
 164:source\asw/detector.c ****                     
 165:source\asw/detector.c ****                     if (detector -> readyToSend == FALSE){
 236              		.loc 1 165 0
 237 0050 99F80330 		ldrb	r3, [r9, #3]	@ zero_extendqisi2
 238 0054 1BB9     		cbnz	r3, .L20
 166:source\asw/detector.c **** 
 167:source\asw/detector.c ****                         SetEvent(tsk_control, ev_reSample);
 239              		.loc 1 167 0
 240 0056 2021     		movs	r1, #32
 241 0058 0220     		movs	r0, #2
 242 005a FFF7FEFF 		bl	EE_oo_SetEvent
 243              	.LVL27:
 244              	.L20:
 168:source\asw/detector.c ****                     }
 169:source\asw/detector.c ****                     if (detector ->readyToSend == TRUE){
 245              		.loc 1 169 0
 246 005e 99F80330 		ldrb	r3, [r9, #3]	@ zero_extendqisi2
 247 0062 012B     		cmp	r3, #1
 248 0064 06D1     		bne	.L19
 170:source\asw/detector.c **** 
 171:source\asw/detector.c ****                         detector -> readyToSend = FALSE;
 249              		.loc 1 171 0
 250 0066 0023     		movs	r3, #0
 251 0068 89F80330 		strb	r3, [r9, #3]
 172:source\asw/detector.c ****                         
 173:source\asw/detector.c ****                         SetEvent(tsk_control, ev_send);
 252              		.loc 1 173 0
 253 006c 0821     		movs	r1, #8
 254 006e 0220     		movs	r0, #2
 255 0070 FFF7FEFF 		bl	EE_oo_SetEvent
 256              	.LVL28:
 257              	.L19:
 174:source\asw/detector.c ****                     }
 175:source\asw/detector.c ****                 } 
 176:source\asw/detector.c ****                 if (ev & ev_reSample){
 258              		.loc 1 176 0
 259 0074 18F0200F 		tst	r8, #32
 260 0078 03D0     		beq	.L21
 177:source\asw/detector.c **** 
 178:source\asw/detector.c ****                     DMA_Set(DMA_ADC_TO_MEMORY, DMA_ON);
 261              		.loc 1 178 0
 262 007a 0121     		movs	r1, #1
 263 007c 0020     		movs	r0, #0
 264 007e FFF7FEFF 		bl	DMA_Set
 265              	.LVL29:
 266              	.L21:
 179:source\asw/detector.c ****                     
 180:source\asw/detector.c ****                 }
ARM GAS  C:\Users\zakis\AppData\Local\Temp\ccU0g5MZ.s 			page 9


 181:source\asw/detector.c ****                 if (ev & ev_send){
 267              		.loc 1 181 0
 268 0082 18F0080F 		tst	r8, #8
 269 0086 00F09C80 		beq	.L14
 182:source\asw/detector.c ****                     
 183:source\asw/detector.c ****                     
 184:source\asw/detector.c ****                     
 185:source\asw/detector.c ****                     
 186:source\asw/detector.c ****                     DMA_Set(DMA_ADC_TO_MEMORY, DMA_OFF);
 270              		.loc 1 186 0
 271 008a 0021     		movs	r1, #0
 272 008c 0846     		mov	r0, r1
 273 008e FFF7FEFF 		bl	DMA_Set
 274              	.LVL30:
 187:source\asw/detector.c ****                     fft_app(ADCBuffer,fftBuffer,1024); //
 275              		.loc 1 187 0
 276 0092 4D4D     		ldr	r5, .L33
 277 0094 4FF48062 		mov	r2, #1024
 278 0098 2946     		mov	r1, r5
 279 009a 4C48     		ldr	r0, .L33+4
 280 009c FFF7FEFF 		bl	fft_app
 281              	.LVL31:
 188:source\asw/detector.c ****                     
 189:source\asw/detector.c ****                     CFAR_reset_output(&cfarOutput);
 282              		.loc 1 189 0
 283 00a0 4B4C     		ldr	r4, .L33+8
 284 00a2 2046     		mov	r0, r4
 285 00a4 FFF7FEFF 		bl	CFAR_reset_output
 286              	.LVL32:
 190:source\asw/detector.c ****                     calculateCFAR(fftBuffer, &cfarInput, &cfarOutput); 
 287              		.loc 1 190 0
 288 00a8 2246     		mov	r2, r4
 289 00aa 4A49     		ldr	r1, .L33+12
 290 00ac 2846     		mov	r0, r5
 291 00ae FFF7FEFF 		bl	calculateCFAR
 292              	.LVL33:
 191:source\asw/detector.c ****                     if (cfarOutput.numberTargets > 0){
 293              		.loc 1 191 0
 294 00b2 44F20803 		movw	r3, #16392
 295 00b6 E35C     		ldrb	r3, [r4, r3]	@ zero_extendqisi2
 296 00b8 23B1     		cbz	r3, .L22
 192:source\asw/detector.c ****                         LED_Set(LED_GREEN, LED_ON);
 297              		.loc 1 192 0
 298 00ba 0121     		movs	r1, #1
 299 00bc 0220     		movs	r0, #2
 300 00be FFF7FEFF 		bl	LED_Set
 301              	.LVL34:
 302 00c2 03E0     		b	.L23
 303              	.L22:
 193:source\asw/detector.c ****                     
 194:source\asw/detector.c ****                     } else {
 195:source\asw/detector.c ****                         LED_Set(LED_GREEN, LED_OFF);
 304              		.loc 1 195 0
 305 00c4 0021     		movs	r1, #0
 306 00c6 0220     		movs	r0, #2
 307 00c8 FFF7FEFF 		bl	LED_Set
 308              	.LVL35:
ARM GAS  C:\Users\zakis\AppData\Local\Temp\ccU0g5MZ.s 			page 10


 309              	.L23:
 196:source\asw/detector.c ****                     }
 197:source\asw/detector.c ****                     
 198:source\asw/detector.c ****                     detector -> detectorState = UART_TRANSFER;
 310              		.loc 1 198 0
 311 00cc 0220     		movs	r0, #2
 312 00ce 89F80000 		strb	r0, [r9]
 199:source\asw/detector.c ****                     DETECTOR_setLedState(UART_TRANSFER);
 313              		.loc 1 199 0
 314 00d2 FFF7FEFF 		bl	DETECTOR_setLedState
 315              	.LVL36:
 316              	.LBB2:
 200:source\asw/detector.c ****                     #define DMA_2 0
 201:source\asw/detector.c ****                     
 202:source\asw/detector.c ****                     #if DMA_2 == 1
 203:source\asw/detector.c ****                         DMA_Set(DMA_MEMORY_TO_UART, DMA_ON); //
 204:source\asw/detector.c ****                     #endif
 205:source\asw/detector.c ****                     
 206:source\asw/detector.c ****                     #if DMA_2 == 0
 207:source\asw/detector.c ****                     for (int i = 0; i < 1024; ++i){
 317              		.loc 1 207 0
 318 00d6 0024     		movs	r4, #0
 319 00d8 0EE0     		b	.L24
 320              	.LVL37:
 321              	.L25:
 322              	.LBB3:
 208:source\asw/detector.c ****                         uint8_t byte0 = (ADCBuffer[i] >> 8) & 0xFF; // MSB
 323              		.loc 1 208 0 discriminator 3
 324 00da 3C4B     		ldr	r3, .L33+4
 325 00dc 33F81400 		ldrh	r0, [r3, r4, lsl #1]
 326 00e0 050A     		lsrs	r5, r0, #8
 327              	.LVL38:
 209:source\asw/detector.c ****                         uint8_t byte1 = ADCBuffer[i] & 0xFF;         // LAB
 210:source\asw/detector.c **** 
 211:source\asw/detector.c ****                         UART_LOG_PutChar(byte1);
 328              		.loc 1 211 0 discriminator 3
 329 00e2 C0B2     		uxtb	r0, r0
 330 00e4 FFF7FEFF 		bl	UART_LOG_PutChar
 331              	.LVL39:
 212:source\asw/detector.c ****                         UART_LOG_PutChar(byte0);
 332              		.loc 1 212 0 discriminator 3
 333 00e8 2846     		mov	r0, r5
 334 00ea FFF7FEFF 		bl	UART_LOG_PutChar
 335              	.LVL40:
 213:source\asw/detector.c ****                         
 214:source\asw/detector.c ****                         SetEvent(tsk_control, ev_sendFFT);
 336              		.loc 1 214 0 discriminator 3
 337 00ee 4021     		movs	r1, #64
 338 00f0 0220     		movs	r0, #2
 339 00f2 FFF7FEFF 		bl	EE_oo_SetEvent
 340              	.LVL41:
 341              	.LBE3:
 207:source\asw/detector.c ****                         uint8_t byte0 = (ADCBuffer[i] >> 8) & 0xFF; // MSB
 342              		.loc 1 207 0 discriminator 3
 343 00f6 0134     		adds	r4, r4, #1
 344              	.LVL42:
 345              	.L24:
ARM GAS  C:\Users\zakis\AppData\Local\Temp\ccU0g5MZ.s 			page 11


 207:source\asw/detector.c ****                         uint8_t byte0 = (ADCBuffer[i] >> 8) & 0xFF; // MSB
 346              		.loc 1 207 0 is_stmt 0 discriminator 1
 347 00f8 B4F5806F 		cmp	r4, #1024
 348 00fc EDDB     		blt	.L25
 349 00fe 60E0     		b	.L14
 350              	.LVL43:
 351              	.L17:
 352              	.LBE2:
 215:source\asw/detector.c ****                     
 216:source\asw/detector.c ****                     }
 217:source\asw/detector.c ****                     #endif
 218:source\asw/detector.c **** 
 219:source\asw/detector.c ****                 }
 220:source\asw/detector.c ****                 
 221:source\asw/detector.c ****             }
 222:source\asw/detector.c ****             break;
 223:source\asw/detector.c **** 
 224:source\asw/detector.c ****             /*  UART_TRANSFER state transfers the sampled data over UART and waits for a feedback
 225:source\asw/detector.c ****             *   ev_sendFFT:         Trigered when FFT bytes are to be sent over UART
 226:source\asw/detector.c ****             *   ev_noSReceived:         Trigered when sampling needs to be started again
 227:source\asw/detector.c ****             *   ev_nReceived:         Trigered when MATLAB does not detect movement
 228:source\asw/detector.c ****             *   ev_tReceived:         Trigered when MATLAB detects movement
 229:source\asw/detector.c ****             *   ev_UARTOver:            Triggered when UART receives an 'o'. Marks end of transfer.
 230:source\asw/detector.c ****             *                               transfers < 10. Sampling starts again. If number of tra
 231:source\asw/detector.c ****             *                               is considered complete, and system waits for a button p
 232:source\asw/detector.c ****             *                               from UART_TRANSFER to IDLE.
 233:source\asw/detector.c ****             
 234:source\asw/detector.c ****             *    
 235:source\asw/detector.c **** 
 236:source\asw/detector.c ****             */
 237:source\asw/detector.c ****             case (UART_TRANSFER):
 238:source\asw/detector.c ****             {
 239:source\asw/detector.c ****                 if (ev & ev_sendFFT){
 353              		.loc 1 239 0 is_stmt 1
 354 0100 11F0400F 		tst	r1, #64
 355 0104 23D0     		beq	.L26
 240:source\asw/detector.c ****                    
 241:source\asw/detector.c ****                     DMA_Set(DMA_MEMORY_TO_UART, DMA_OFF);
 356              		.loc 1 241 0
 357 0106 0021     		movs	r1, #0
 358              	.LVL44:
 359 0108 0120     		movs	r0, #1
 360              	.LVL45:
 361 010a FFF7FEFF 		bl	DMA_Set
 362              	.LVL46:
 242:source\asw/detector.c ****                     
 243:source\asw/detector.c ****                     #define DMA 0
 244:source\asw/detector.c ****                     
 245:source\asw/detector.c ****                     #if DMA == 1
 246:source\asw/detector.c **** 
 247:source\asw/detector.c ****                     DMA_Set(DMA_FFT_TO_UART, DMA_ON); //
 248:source\asw/detector.c ****                     #endif 
 249:source\asw/detector.c ****                     
 250:source\asw/detector.c ****                     #if DMA == 0
 251:source\asw/detector.c ****                     
 252:source\asw/detector.c ****                     fft_app(ADCBuffer,fftBuffer,1024); //
 363              		.loc 1 252 0
ARM GAS  C:\Users\zakis\AppData\Local\Temp\ccU0g5MZ.s 			page 12


 364 010e 4FF48062 		mov	r2, #1024
 365 0112 2D49     		ldr	r1, .L33
 366 0114 2D48     		ldr	r0, .L33+4
 367 0116 FFF7FEFF 		bl	fft_app
 368              	.LVL47:
 369              	.LBB4:
 253:source\asw/detector.c ****                     for (int i = 0; i < 2048; ++i){
 370              		.loc 1 253 0
 371 011a 0024     		movs	r4, #0
 372 011c 14E0     		b	.L27
 373              	.LVL48:
 374              	.L28:
 375              	.LBB5:
 254:source\asw/detector.c ****                         uint8_t byte0 = (fftBuffer[i] >> 24) & 0xFF; // MSB
 376              		.loc 1 254 0 discriminator 3
 377 011e 2A4B     		ldr	r3, .L33
 378 0120 53F82400 		ldr	r0, [r3, r4, lsl #2]
 379 0124 050E     		lsrs	r5, r0, #24
 380              	.LVL49:
 255:source\asw/detector.c ****                         uint8_t byte1 = (fftBuffer[i] >> 16) & 0xFF;
 381              		.loc 1 255 0 discriminator 3
 382 0126 C0F30746 		ubfx	r6, r0, #16, #8
 383              	.LVL50:
 256:source\asw/detector.c ****                         uint8_t byte2 = (fftBuffer[i] >> 8) & 0xFF;
 384              		.loc 1 256 0 discriminator 3
 385 012a C0F30727 		ubfx	r7, r0, #8, #8
 386              	.LVL51:
 257:source\asw/detector.c ****                         uint8_t byte3 = fftBuffer[i] & 0xFF;         // LSB
 258:source\asw/detector.c **** 
 259:source\asw/detector.c ****                         UART_LOG_PutChar(byte3);
 387              		.loc 1 259 0 discriminator 3
 388 012e C0B2     		uxtb	r0, r0
 389 0130 FFF7FEFF 		bl	UART_LOG_PutChar
 390              	.LVL52:
 260:source\asw/detector.c ****                         UART_LOG_PutChar(byte2);
 391              		.loc 1 260 0 discriminator 3
 392 0134 3846     		mov	r0, r7
 393 0136 FFF7FEFF 		bl	UART_LOG_PutChar
 394              	.LVL53:
 261:source\asw/detector.c ****                         UART_LOG_PutChar(byte1);
 395              		.loc 1 261 0 discriminator 3
 396 013a 3046     		mov	r0, r6
 397 013c FFF7FEFF 		bl	UART_LOG_PutChar
 398              	.LVL54:
 262:source\asw/detector.c ****                         UART_LOG_PutChar(byte0);
 399              		.loc 1 262 0 discriminator 3
 400 0140 2846     		mov	r0, r5
 401 0142 FFF7FEFF 		bl	UART_LOG_PutChar
 402              	.LVL55:
 403              	.LBE5:
 253:source\asw/detector.c ****                         uint8_t byte0 = (fftBuffer[i] >> 24) & 0xFF; // MSB
 404              		.loc 1 253 0 discriminator 3
 405 0146 0134     		adds	r4, r4, #1
 406              	.LVL56:
 407              	.L27:
 253:source\asw/detector.c ****                         uint8_t byte0 = (fftBuffer[i] >> 24) & 0xFF; // MSB
 408              		.loc 1 253 0 is_stmt 0 discriminator 1
ARM GAS  C:\Users\zakis\AppData\Local\Temp\ccU0g5MZ.s 			page 13


 409 0148 B4F5006F 		cmp	r4, #2048
 410 014c E7DB     		blt	.L28
 411              	.LVL57:
 412              	.L26:
 413              	.LBE4:
 263:source\asw/detector.c ****                     
 264:source\asw/detector.c ****                     }
 265:source\asw/detector.c ****                     #endif
 266:source\asw/detector.c **** 
 267:source\asw/detector.c ****                 }
 268:source\asw/detector.c ****                 
 269:source\asw/detector.c ****                 
 270:source\asw/detector.c ****                 if (ev & ev_oReceived){
 414              		.loc 1 270 0 is_stmt 1
 415 014e 18F0100F 		tst	r8, #16
 416 0152 28D0     		beq	.L29
 271:source\asw/detector.c ****                     
 272:source\asw/detector.c ****                   
 273:source\asw/detector.c ****                     DMA_Set(DMA_FFT_TO_UART, DMA_OFF); //
 417              		.loc 1 273 0
 418 0154 0021     		movs	r1, #0
 419 0156 0220     		movs	r0, #2
 420 0158 FFF7FEFF 		bl	DMA_Set
 421              	.LVL58:
 274:source\asw/detector.c ****                     
 275:source\asw/detector.c ****                     
 276:source\asw/detector.c ****                     detector -> numberOfTransfers += 1;
 422              		.loc 1 276 0
 423 015c 99F80130 		ldrb	r3, [r9, #1]	@ zero_extendqisi2
 424 0160 0133     		adds	r3, r3, #1
 425 0162 DBB2     		uxtb	r3, r3
 426 0164 89F80130 		strb	r3, [r9, #1]
 277:source\asw/detector.c ****                     if (detector -> numberOfTransfers < 10){
 427              		.loc 1 277 0
 428 0168 092B     		cmp	r3, #9
 429 016a 09D8     		bhi	.L30
 278:source\asw/detector.c ****                         detector -> detectorState = SAMPLING;
 430              		.loc 1 278 0
 431 016c 0120     		movs	r0, #1
 432 016e 89F80000 		strb	r0, [r9]
 279:source\asw/detector.c ****                         DETECTOR_setLedState(SAMPLING);
 433              		.loc 1 279 0
 434 0172 FFF7FEFF 		bl	DETECTOR_setLedState
 435              	.LVL59:
 280:source\asw/detector.c ****                         
 281:source\asw/detector.c ****                         SetEvent(tsk_control, ev_reSample);
 436              		.loc 1 281 0
 437 0176 2021     		movs	r1, #32
 438 0178 0220     		movs	r0, #2
 439 017a FFF7FEFF 		bl	EE_oo_SetEvent
 440              	.LVL60:
 441 017e 12E0     		b	.L29
 442              	.L30:
 282:source\asw/detector.c ****                     }
 283:source\asw/detector.c ****                     else if (detector -> numberOfTransfers == 10){
 443              		.loc 1 283 0
 444 0180 0A2B     		cmp	r3, #10
ARM GAS  C:\Users\zakis\AppData\Local\Temp\ccU0g5MZ.s 			page 14


 445 0182 10D1     		bne	.L29
 284:source\asw/detector.c ****                         detector -> detectorState = IDLE;
 446              		.loc 1 284 0
 447 0184 0024     		movs	r4, #0
 448 0186 89F80040 		strb	r4, [r9]
 285:source\asw/detector.c ****                         DETECTOR_setLedState(IDLE);
 449              		.loc 1 285 0
 450 018a 2046     		mov	r0, r4
 451 018c FFF7FEFF 		bl	DETECTOR_setLedState
 452              	.LVL61:
 286:source\asw/detector.c **** 
 287:source\asw/detector.c ****                         //DAC_Set(DAC_OFF);
 288:source\asw/detector.c ****                         ADC_Set(ADC_OFF);
 453              		.loc 1 288 0
 454 0190 2046     		mov	r0, r4
 455 0192 FFF7FEFF 		bl	ADC_Set
 456              	.LVL62:
 289:source\asw/detector.c ****                         
 290:source\asw/detector.c ****                         detector -> numberOfTransfers = 0;
 457              		.loc 1 290 0
 458 0196 89F80140 		strb	r4, [r9, #1]
 291:source\asw/detector.c ****                         detector -> samplingFinished = FALSE;
 459              		.loc 1 291 0
 460 019a 89F80240 		strb	r4, [r9, #2]
 292:source\asw/detector.c ****                         detector ->readyToSend = FALSE;
 461              		.loc 1 292 0
 462 019e 89F80340 		strb	r4, [r9, #3]
 293:source\asw/detector.c ****                         detector ->memoryToUARTFinished = FALSE;
 463              		.loc 1 293 0
 464 01a2 89F80440 		strb	r4, [r9, #4]
 465              	.L29:
 294:source\asw/detector.c ****                         
 295:source\asw/detector.c ****                         
 296:source\asw/detector.c ****                     }
 297:source\asw/detector.c ****                 }
 298:source\asw/detector.c ****                 if (ev & ev_nReceived){
 466              		.loc 1 298 0
 467 01a6 18F4807F 		tst	r8, #256
 468 01aa 03D0     		beq	.L31
 299:source\asw/detector.c ****                     //LED_Set(LED_ALL, OFF);
 300:source\asw/detector.c ****                     LED_Set(LED_TARGET, LED_ON);
 469              		.loc 1 300 0
 470 01ac 0121     		movs	r1, #1
 471 01ae 0320     		movs	r0, #3
 472 01b0 FFF7FEFF 		bl	LED_Set
 473              	.LVL63:
 474              	.L31:
 301:source\asw/detector.c ****                 }
 302:source\asw/detector.c ****                 if (ev & ev_tReceived){
 475              		.loc 1 302 0
 476 01b4 18F0800F 		tst	r8, #128
 477 01b8 03D0     		beq	.L14
 303:source\asw/detector.c ****                     //LED_Set(LED_ALL, ON);
 304:source\asw/detector.c ****                     LED_Set(LED_TARGET, LED_OFF);
 478              		.loc 1 304 0
 479 01ba 0021     		movs	r1, #0
 480 01bc 0320     		movs	r0, #3
ARM GAS  C:\Users\zakis\AppData\Local\Temp\ccU0g5MZ.s 			page 15


 481 01be FFF7FEFF 		bl	LED_Set
 482              	.LVL64:
 483              	.L14:
 305:source\asw/detector.c ****                 }
 306:source\asw/detector.c ****             }
 307:source\asw/detector.c ****             break;
 308:source\asw/detector.c ****         
 309:source\asw/detector.c ****         }
 310:source\asw/detector.c ****     return RC_SUCCESS;
 311:source\asw/detector.c **** }...
 484              		.loc 1 311 0
 485 01c2 0020     		movs	r0, #0
 486 01c4 BDE8F883 		pop	{r3, r4, r5, r6, r7, r8, r9, pc}
 487              	.LVL65:
 488              	.L34:
 489              		.align	2
 490              	.L33:
 491 01c8 00000000 		.word	fftBuffer
 492 01cc 00000000 		.word	ADCBuffer
 493 01d0 00000000 		.word	cfarOutput
 494 01d4 00000000 		.word	cfarInput
 495              		.cfi_endproc
 496              	.LFE170:
 497              		.size	DETECTOR_processEvents, .-DETECTOR_processEvents
 498              		.comm	cfarOutput,17424,8
 499              		.comm	cfarInput,24,8
 500              		.comm	DMA_FFT_UART_TD,3,4
 501              		.comm	DMA_FFT_UART_Chan,1,1
 502              		.comm	DMA_MEM_UART_TD,1,4
 503              		.comm	DMA_MEM_UART_Chan,1,1
 504              		.comm	DMA_ADC_MEM_TD,1,4
 505              		.comm	DMA_ADC_MEM_Chan,1,1
 506              		.text
 507              	.Letext0:
 508              		.file 2 "c:\\program files (x86)\\cypress\\psoc creator\\4.4\\psoc creator\\import\\gnu\\arm\\5.4.
 509              		.file 3 "c:\\program files (x86)\\cypress\\psoc creator\\4.4\\psoc creator\\import\\gnu\\arm\\5.4.
 510              		.file 4 "Generated_Source\\PSoC5/cytypes.h"
 511              		.file 5 "Generated_Source\\PSoC5/ErikaOS_common_ee_types.inc"
 512              		.file 6 "Generated_Source\\PSoC5/ErikaOS_cortex_mx_ee_cpu.inc"
 513              		.file 7 "Generated_Source\\PSoC5/ErikaOS_ee_oo_common.inc"
 514              		.file 8 ".\\source\\bsw/global.h"
 515              		.file 9 ".\\source\\bsw/led.h"
 516              		.file 10 ".\\source\\bsw/dac_adc.h"
 517              		.file 11 "source\\asw\\cfar.h"
 518              		.file 12 "source\\asw\\detector.h"
 519              		.file 13 ".\\source\\bsw/dma.h"
 520              		.file 14 "Generated_Source\\PSoC5/ErikaOS_ee_oo_intfunc.inc"
 521              		.file 15 "Generated_Source\\PSoC5/ErikaOS_cortex_mx_ee_context.inc"
 522              		.file 16 "Generated_Source\\PSoC5/ErikaOS_common_ee_primitives.inc"
 523              		.file 17 "Generated_Source\\PSoC5/core_cm3.h"
 524              		.file 18 ".\\source\\bsw/uart.h"
 525              		.file 19 "Generated_Source\\PSoC5/UART_LOG.h"
 526              		.file 20 "Generated_Source\\PSoC5/ErikaOS_ee_oo_kernel.inc"
 527              		.file 21 ".\\source\\bsw\\fft_application/fft_application.h"