ARM GAS  C:\Users\zakis\AppData\Local\Temp\ccxCXNFd.s 			page 1


   1              		.syntax unified
   2              		.cpu cortex-m3
   3              		.fpu softvfp
   4              		.eabi_attribute 20, 1
   5              		.eabi_attribute 21, 1
   6              		.eabi_attribute 23, 3
   7              		.eabi_attribute 24, 1
   8              		.eabi_attribute 25, 1
   9              		.eabi_attribute 26, 1
  10              		.eabi_attribute 30, 1
  11              		.eabi_attribute 34, 1
  12              		.eabi_attribute 18, 4
  13              		.thumb
  14              		.syntax unified
  15              		.file	"led.c"
  16              		.text
  17              	.Ltext0:
  18              		.cfi_sections	.debug_frame
  19              		.section	.text.LED_Set,"ax",%progbits
  20              		.align	2
  21              		.global	LED_Set
  22              		.thumb
  23              		.thumb_func
  24              		.type	LED_Set, %function
  25              	LED_Set:
  26              	.LFB111:
  27              		.file 1 "source\\bsw\\led.c"
   1:source\bsw/led.c **** /**
   2:source\bsw/led.c **** * \file <filename>
   3:source\bsw/led.c **** * \author <author-name>
   4:source\bsw/led.c **** * \date <date>
   5:source\bsw/led.c **** *
   6:source\bsw/led.c **** * \brief <Symbolic File name>
   7:source\bsw/led.c **** *
   8:source\bsw/led.c **** * \copyright Copyright ©2016
   9:source\bsw/led.c **** * Department of electrical engineering and information technology, Hochschule Darmstadt - Universit
  10:source\bsw/led.c **** * Permission to use, copy, modify, and distribute this software and its documentation for education
  11:source\bsw/led.c **** * (unless permitted by h_da) and official h_da projects, is hereby granted for enrolled students of
  12:source\bsw/led.c **** * this paragraph and the following paragraph appear in all copies, modifications, and distributions
  13:source\bsw/led.c **** * Contact Prof.Dr.-Ing. Peter Fromm, peter.fromm@h-da.de, Birkenweg 8 64295 Darmstadt - GERMANY for
  14:source\bsw/led.c **** *
  15:source\bsw/led.c **** * \warning This software is a PROTOTYPE version and is not designed or intended for use in producti
  16:source\bsw/led.c **** * The user represents and warrants that it will NOT use or redistribute the Software for such purpo
  17:source\bsw/led.c **** * This prototype is for research purposes only. This software is provided "AS IS," without a warran
  18:source\bsw/led.c **** */
  19:source\bsw/led.c **** 
  20:source\bsw/led.c **** /*****************************************************************************/
  21:source\bsw/led.c **** /* Include files                                                             */
  22:source\bsw/led.c **** /*****************************************************************************/
  23:source\bsw/led.c **** 
  24:source\bsw/led.c **** #include "project.h"
  25:source\bsw/led.c **** #include "led.h"
  26:source\bsw/led.c **** 
  27:source\bsw/led.c **** 
  28:source\bsw/led.c **** /*****************************************************************************/
  29:source\bsw/led.c **** /* Local pre-processor symbols/macros ('#define')                            */
  30:source\bsw/led.c **** /*****************************************************************************/
ARM GAS  C:\Users\zakis\AppData\Local\Temp\ccxCXNFd.s 			page 2


  31:source\bsw/led.c **** 
  32:source\bsw/led.c **** /*****************************************************************************/
  33:source\bsw/led.c **** /* Global variable definitions (declared in header file with 'extern')       */
  34:source\bsw/led.c **** /*****************************************************************************/
  35:source\bsw/led.c **** 
  36:source\bsw/led.c **** /*****************************************************************************/
  37:source\bsw/led.c **** /* Local type definitions ('typedef')                                        */
  38:source\bsw/led.c **** /*****************************************************************************/
  39:source\bsw/led.c **** 
  40:source\bsw/led.c **** 
  41:source\bsw/led.c **** 
  42:source\bsw/led.c **** /*****************************************************************************/
  43:source\bsw/led.c **** /* Local variable definitions ('static')                                     */
  44:source\bsw/led.c **** /*****************************************************************************/
  45:source\bsw/led.c **** 
  46:source\bsw/led.c **** 
  47:source\bsw/led.c **** static LED_ONOFF_t LED__state[LED_ALL] = {LED_OFF, LED_OFF, LED_OFF}; /**< On/Off State of the LED,
  48:source\bsw/led.c **** 
  49:source\bsw/led.c **** 
  50:source\bsw/led.c **** /*****************************************************************************/
  51:source\bsw/led.c **** /* Local function prototypes ('static')                                      */
  52:source\bsw/led.c **** /*****************************************************************************/
  53:source\bsw/led.c **** 
  54:source\bsw/led.c **** /**
  55:source\bsw/led.c ****  * Inverts the parameter
  56:source\bsw/led.c ****  * @param LED_ONOFF_t ledOnOff - Value to be inverted
  57:source\bsw/led.c ****  * @return inverted parameter
  58:source\bsw/led.c ****  */
  59:source\bsw/led.c **** static inline LED_ONOFF_t LED__toggleValue(LED_ONOFF_t ledOnOff);
  60:source\bsw/led.c **** 
  61:source\bsw/led.c **** 
  62:source\bsw/led.c **** /*****************************************************************************/
  63:source\bsw/led.c **** /* Function implementation - global ('extern') and local ('static')          */
  64:source\bsw/led.c **** /*****************************************************************************/
  65:source\bsw/led.c **** 
  66:source\bsw/led.c **** /**
  67:source\bsw/led.c ****  * Initialises the LED's and turns them off
  68:source\bsw/led.c ****  * @return RC_SUCCESS if function was executed as exepected, other error code in case of error
  69:source\bsw/led.c ****  */
  70:source\bsw/led.c **** RC_t LED_Init()
  71:source\bsw/led.c **** {
  72:source\bsw/led.c ****     RC_t result = RC_SUCCESS;
  73:source\bsw/led.c ****     
  74:source\bsw/led.c ****     for (LED_id_t i = LED_RED; i < LED_ALL; i++)
  75:source\bsw/led.c ****     {
  76:source\bsw/led.c ****         LED__state[i] = OFF;
  77:source\bsw/led.c ****         
  78:source\bsw/led.c ****         RC_t clearResult;
  79:source\bsw/led.c ****         clearResult = LED_Set(i, LED_OFF);
  80:source\bsw/led.c ****         
  81:source\bsw/led.c ****         if (clearResult != RC_SUCCESS)
  82:source\bsw/led.c ****         {
  83:source\bsw/led.c ****             //memorize error
  84:source\bsw/led.c ****             result = clearResult;
  85:source\bsw/led.c ****         }
  86:source\bsw/led.c ****     }
  87:source\bsw/led.c **** 
ARM GAS  C:\Users\zakis\AppData\Local\Temp\ccxCXNFd.s 			page 3


  88:source\bsw/led.c ****     
  89:source\bsw/led.c ****     return result;
  90:source\bsw/led.c **** }
  91:source\bsw/led.c **** 
  92:source\bsw/led.c **** /**
  93:source\bsw/led.c ****  * Sets the required LED
  94:source\bsw/led.c ****  * @param LED_t ledId - Identifier for the LED, ALL will change all LED's
  95:source\bsw/led.c ****  * @param LED_ONOFF_t ledOnOff - Trun the led on or off
  96:source\bsw/led.c ****  * @return RC_SUCCESS if function was executed as exepected, other error code in case of error
  97:source\bsw/led.c ****  */
  98:source\bsw/led.c **** RC_t LED_Set(LED_id_t ledId, LED_ONOFF_t ledOnOff)
  99:source\bsw/led.c **** {
  28              		.loc 1 99 0
  29              		.cfi_startproc
  30              		@ args = 0, pretend = 0, frame = 0
  31              		@ frame_needed = 0, uses_anonymous_args = 0
  32              	.LVL0:
  33 0000 38B5     		push	{r3, r4, r5, lr}
  34              		.cfi_def_cfa_offset 16
  35              		.cfi_offset 3, -16
  36              		.cfi_offset 4, -12
  37              		.cfi_offset 5, -8
  38              		.cfi_offset 14, -4
  39 0002 0446     		mov	r4, r0
  40 0004 0D46     		mov	r5, r1
 100:source\bsw/led.c ****     //set individual LED
 101:source\bsw/led.c ****     switch (ledId)
  41              		.loc 1 101 0
  42 0006 0528     		cmp	r0, #5
  43 0008 2ED8     		bhi	.L10
  44 000a DFE800F0 		tbb	[pc, r0]
  45              	.L4:
  46 000e 03       		.byte	(.L3-.L4)/2
  47 000f 0A       		.byte	(.L5-.L4)/2
  48 0010 11       		.byte	(.L6-.L4)/2
  49 0011 24       		.byte	(.L7-.L4)/2
  50 0012 2D       		.byte	(.L10-.L4)/2
  51 0013 1F       		.byte	(.L11-.L4)/2
  52              		.p2align 1
  53              	.L3:
 102:source\bsw/led.c ****     {
 103:source\bsw/led.c ****         case LED_RED : 
 104:source\bsw/led.c ****             LED_red_Write(ledOnOff); 
  54              		.loc 1 104 0
  55 0014 0846     		mov	r0, r1
  56              	.LVL1:
  57 0016 FFF7FEFF 		bl	LED_red_Write
  58              	.LVL2:
 105:source\bsw/led.c ****             LED__state[ledId] = ledOnOff; 
  59              		.loc 1 105 0
  60 001a 154B     		ldr	r3, .L13
  61 001c 1D55     		strb	r5, [r3, r4]
 106:source\bsw/led.c ****             break;
 107:source\bsw/led.c ****         
 108:source\bsw/led.c ****         case LED_ORANGE : 
 109:source\bsw/led.c ****             LED_orange_Write(ledOnOff); 
 110:source\bsw/led.c ****             LED__state[ledId] = ledOnOff;
ARM GAS  C:\Users\zakis\AppData\Local\Temp\ccxCXNFd.s 			page 4


 111:source\bsw/led.c ****             break;
 112:source\bsw/led.c ****             
 113:source\bsw/led.c ****         case LED_GREEN : 
 114:source\bsw/led.c ****             LED_green_Write(ledOnOff); 
 115:source\bsw/led.c ****             LED__state[ledId] = ledOnOff;
 116:source\bsw/led.c ****             break;
 117:source\bsw/led.c ****            
 118:source\bsw/led.c ****         case LED_ALL : 
 119:source\bsw/led.c ****             for (LED_id_t i = LED_RED; i < LED_ALL; i++)
 120:source\bsw/led.c ****             {
 121:source\bsw/led.c ****                 LED_Set(i, ledOnOff);
 122:source\bsw/led.c ****             }
 123:source\bsw/led.c ****             break;
 124:source\bsw/led.c ****         case LED_TARGET : 
 125:source\bsw/led.c ****             LED_Set(LED_GREEN, ledOnOff); 
 126:source\bsw/led.c ****             LED_Set(LED_ORANGE, ledOnOff); 
 127:source\bsw/led.c ****             break;
 128:source\bsw/led.c ****         default: return RC_ERROR_BAD_PARAM;
 129:source\bsw/led.c ****     }
 130:source\bsw/led.c ****     
 131:source\bsw/led.c ****     return RC_SUCCESS;
  62              		.loc 1 131 0
  63 001e 0020     		movs	r0, #0
 106:source\bsw/led.c ****             break;
  64              		.loc 1 106 0
  65 0020 38BD     		pop	{r3, r4, r5, pc}
  66              	.LVL3:
  67              	.L5:
 109:source\bsw/led.c ****             LED__state[ledId] = ledOnOff;
  68              		.loc 1 109 0
  69 0022 0846     		mov	r0, r1
  70              	.LVL4:
  71 0024 FFF7FEFF 		bl	LED_orange_Write
  72              	.LVL5:
 110:source\bsw/led.c ****             break;
  73              		.loc 1 110 0
  74 0028 114B     		ldr	r3, .L13
  75 002a 1D55     		strb	r5, [r3, r4]
  76              		.loc 1 131 0
  77 002c 0020     		movs	r0, #0
 111:source\bsw/led.c ****             
  78              		.loc 1 111 0
  79 002e 38BD     		pop	{r3, r4, r5, pc}
  80              	.LVL6:
  81              	.L6:
 114:source\bsw/led.c ****             LED__state[ledId] = ledOnOff;
  82              		.loc 1 114 0
  83 0030 0846     		mov	r0, r1
  84              	.LVL7:
  85 0032 FFF7FEFF 		bl	LED_green_Write
  86              	.LVL8:
 115:source\bsw/led.c ****             break;
  87              		.loc 1 115 0
  88 0036 0E4B     		ldr	r3, .L13
  89 0038 1D55     		strb	r5, [r3, r4]
  90              		.loc 1 131 0
  91 003a 0020     		movs	r0, #0
ARM GAS  C:\Users\zakis\AppData\Local\Temp\ccxCXNFd.s 			page 5


 116:source\bsw/led.c ****            
  92              		.loc 1 116 0
  93 003c 38BD     		pop	{r3, r4, r5, pc}
  94              	.LVL9:
  95              	.L9:
  96              	.LBB9:
 121:source\bsw/led.c ****             }
  97              		.loc 1 121 0 discriminator 3
  98 003e 2946     		mov	r1, r5
  99 0040 2046     		mov	r0, r4
 100 0042 FFF7FEFF 		bl	LED_Set
 101              	.LVL10:
 119:source\bsw/led.c ****             {
 102              		.loc 1 119 0 discriminator 3
 103 0046 0134     		adds	r4, r4, #1
 104              	.LVL11:
 105 0048 E4B2     		uxtb	r4, r4
 106              	.LVL12:
 107 004a 00E0     		b	.L8
 108              	.LVL13:
 109              	.L11:
 110              	.LBE9:
 101:source\bsw/led.c ****     {
 111              		.loc 1 101 0
 112 004c 0024     		movs	r4, #0
 113              	.LVL14:
 114              	.L8:
 115              	.LBB10:
 119:source\bsw/led.c ****             {
 116              		.loc 1 119 0 discriminator 1
 117 004e 042C     		cmp	r4, #4
 118 0050 F5D9     		bls	.L9
 119              	.LBE10:
 120              		.loc 1 131 0
 121 0052 0020     		movs	r0, #0
 122 0054 38BD     		pop	{r3, r4, r5, pc}
 123              	.LVL15:
 124              	.L7:
 125:source\bsw/led.c ****             LED_Set(LED_ORANGE, ledOnOff); 
 125              		.loc 1 125 0
 126 0056 0220     		movs	r0, #2
 127              	.LVL16:
 128 0058 FFF7FEFF 		bl	LED_Set
 129              	.LVL17:
 126:source\bsw/led.c ****             break;
 130              		.loc 1 126 0
 131 005c 2946     		mov	r1, r5
 132 005e 0120     		movs	r0, #1
 133 0060 FFF7FEFF 		bl	LED_Set
 134              	.LVL18:
 135              		.loc 1 131 0
 136 0064 0020     		movs	r0, #0
 127:source\bsw/led.c ****         default: return RC_ERROR_BAD_PARAM;
 137              		.loc 1 127 0
 138 0066 38BD     		pop	{r3, r4, r5, pc}
 139              	.LVL19:
 140              	.L10:
ARM GAS  C:\Users\zakis\AppData\Local\Temp\ccxCXNFd.s 			page 6


 128:source\bsw/led.c ****     }
 141              		.loc 1 128 0
 142 0068 6FF01300 		mvn	r0, #19
 143              	.LVL20:
 132:source\bsw/led.c **** }
 144              		.loc 1 132 0
 145 006c 38BD     		pop	{r3, r4, r5, pc}
 146              	.L14:
 147 006e 00BF     		.align	2
 148              	.L13:
 149 0070 00000000 		.word	.LANCHOR0
 150              		.cfi_endproc
 151              	.LFE111:
 152              		.size	LED_Set, .-LED_Set
 153              		.section	.text.LED_Init,"ax",%progbits
 154              		.align	2
 155              		.global	LED_Init
 156              		.thumb
 157              		.thumb_func
 158              		.type	LED_Init, %function
 159              	LED_Init:
 160              	.LFB110:
  71:source\bsw/led.c ****     RC_t result = RC_SUCCESS;
 161              		.loc 1 71 0
 162              		.cfi_startproc
 163              		@ args = 0, pretend = 0, frame = 0
 164              		@ frame_needed = 0, uses_anonymous_args = 0
 165 0000 38B5     		push	{r3, r4, r5, lr}
 166              		.cfi_def_cfa_offset 16
 167              		.cfi_offset 3, -16
 168              		.cfi_offset 4, -12
 169              		.cfi_offset 5, -8
 170              		.cfi_offset 14, -4
 171              	.LVL21:
 172              	.LBB11:
  74:source\bsw/led.c ****     {
 173              		.loc 1 74 0
 174 0002 0024     		movs	r4, #0
 175              	.LBE11:
  72:source\bsw/led.c ****     
 176              		.loc 1 72 0
 177 0004 2546     		mov	r5, r4
 178              	.LBB13:
  74:source\bsw/led.c ****     {
 179              		.loc 1 74 0
 180 0006 09E0     		b	.L16
 181              	.LVL22:
 182              	.L18:
 183              	.LBB12:
  76:source\bsw/led.c ****         
 184              		.loc 1 76 0
 185 0008 0021     		movs	r1, #0
 186 000a 064B     		ldr	r3, .L21
 187 000c 1955     		strb	r1, [r3, r4]
  79:source\bsw/led.c ****         
 188              		.loc 1 79 0
 189 000e 2046     		mov	r0, r4
ARM GAS  C:\Users\zakis\AppData\Local\Temp\ccxCXNFd.s 			page 7


 190 0010 FFF7FEFF 		bl	LED_Set
 191              	.LVL23:
  81:source\bsw/led.c ****         {
 192              		.loc 1 81 0
 193 0014 00B1     		cbz	r0, .L17
  84:source\bsw/led.c ****         }
 194              		.loc 1 84 0
 195 0016 0546     		mov	r5, r0
 196              	.LVL24:
 197              	.L17:
 198              	.LBE12:
  74:source\bsw/led.c ****     {
 199              		.loc 1 74 0 discriminator 2
 200 0018 0134     		adds	r4, r4, #1
 201              	.LVL25:
 202 001a E4B2     		uxtb	r4, r4
 203              	.LVL26:
 204              	.L16:
  74:source\bsw/led.c ****     {
 205              		.loc 1 74 0 is_stmt 0 discriminator 1
 206 001c 042C     		cmp	r4, #4
 207 001e F3D9     		bls	.L18
 208              	.LBE13:
  90:source\bsw/led.c **** 
 209              		.loc 1 90 0 is_stmt 1
 210 0020 2846     		mov	r0, r5
 211 0022 38BD     		pop	{r3, r4, r5, pc}
 212              	.LVL27:
 213              	.L22:
 214              		.align	2
 215              	.L21:
 216 0024 00000000 		.word	.LANCHOR0
 217              		.cfi_endproc
 218              	.LFE110:
 219              		.size	LED_Init, .-LED_Init
 220              		.section	.text.LED_Toggle,"ax",%progbits
 221              		.align	2
 222              		.global	LED_Toggle
 223              		.thumb
 224              		.thumb_func
 225              		.type	LED_Toggle, %function
 226              	LED_Toggle:
 227              	.LFB112:
 133:source\bsw/led.c **** 
 134:source\bsw/led.c **** 
 135:source\bsw/led.c **** 
 136:source\bsw/led.c **** /**
 137:source\bsw/led.c ****  * Toggle the required LED
 138:source\bsw/led.c ****  * @param LED_t ledId - Identifier for the LED, ALL will change all LED's
 139:source\bsw/led.c ****  * @return RC_SUCCESS if function was executed as exepected, other error code in case of error
 140:source\bsw/led.c ****  */
 141:source\bsw/led.c **** RC_t LED_Toggle(LED_id_t ledId)
 142:source\bsw/led.c **** {
 228              		.loc 1 142 0
 229              		.cfi_startproc
 230              		@ args = 0, pretend = 0, frame = 0
 231              		@ frame_needed = 0, uses_anonymous_args = 0
ARM GAS  C:\Users\zakis\AppData\Local\Temp\ccxCXNFd.s 			page 8


 232              	.LVL28:
 233 0000 10B5     		push	{r4, lr}
 234              		.cfi_def_cfa_offset 8
 235              		.cfi_offset 4, -8
 236              		.cfi_offset 14, -4
 143:source\bsw/led.c ****     //set individual LED
 144:source\bsw/led.c ****     switch (ledId)
 237              		.loc 1 144 0
 238 0002 0528     		cmp	r0, #5
 239 0004 39D8     		bhi	.L34
 240 0006 DFE800F0 		tbb	[pc, r0]
 241              	.L26:
 242 000a 03       		.byte	(.L25-.L26)/2
 243 000b 11       		.byte	(.L27-.L26)/2
 244 000c 1F       		.byte	(.L28-.L26)/2
 245 000d 38       		.byte	(.L34-.L26)/2
 246 000e 38       		.byte	(.L34-.L26)/2
 247 000f 33       		.byte	(.L35-.L26)/2
 248              		.p2align 1
 249              	.L25:
 145:source\bsw/led.c ****     {
 146:source\bsw/led.c ****         case LED_RED : 
 147:source\bsw/led.c ****             LED__state[ledId] = LED__toggleValue(LED__state[ledId]); 
 250              		.loc 1 147 0
 251 0010 1B4B     		ldr	r3, .L40
 252 0012 1B5C     		ldrb	r3, [r3, r0]	@ zero_extendqisi2
 253              	.LVL29:
 254              	.LBB14:
 255              	.LBB15:
 148:source\bsw/led.c ****             LED_red_Write(LED__state[ledId]);
 149:source\bsw/led.c ****             break;
 150:source\bsw/led.c ****         
 151:source\bsw/led.c ****         case LED_ORANGE : 
 152:source\bsw/led.c ****             LED__state[ledId] = LED__toggleValue(LED__state[ledId]); 
 153:source\bsw/led.c ****             LED_orange_Write(LED__state[ledId]);
 154:source\bsw/led.c ****             break;
 155:source\bsw/led.c ****             
 156:source\bsw/led.c ****         case LED_GREEN : 
 157:source\bsw/led.c ****             LED__state[ledId] = LED__toggleValue(LED__state[ledId]); 
 158:source\bsw/led.c ****             LED_green_Write(LED__state[ledId]);
 159:source\bsw/led.c ****             break;
 160:source\bsw/led.c ****            
 161:source\bsw/led.c ****         case LED_ALL : 
 162:source\bsw/led.c ****             for (LED_id_t i = LED_RED; i < LED_ALL; i++)
 163:source\bsw/led.c ****             {
 164:source\bsw/led.c ****                 LED_Toggle(i);
 165:source\bsw/led.c ****             }
 166:source\bsw/led.c ****             break;
 167:source\bsw/led.c ****         default: return RC_ERROR_BAD_PARAM;
 168:source\bsw/led.c ****     }
 169:source\bsw/led.c ****     
 170:source\bsw/led.c ****     return RC_SUCCESS;
 171:source\bsw/led.c **** }
 172:source\bsw/led.c **** 
 173:source\bsw/led.c **** 
 174:source\bsw/led.c **** /**
 175:source\bsw/led.c ****  * Inverts the parameter
ARM GAS  C:\Users\zakis\AppData\Local\Temp\ccxCXNFd.s 			page 9


 176:source\bsw/led.c ****  * @param LED_ONOFF_t ledOnOff - Value to be inverted
 177:source\bsw/led.c ****  * @return inverted parameter
 178:source\bsw/led.c ****  */
 179:source\bsw/led.c **** static inline LED_ONOFF_t LED__toggleValue(LED_ONOFF_t ledOnOff)
 180:source\bsw/led.c **** {
 181:source\bsw/led.c ****     if (ledOnOff == LED_ON) 
 256              		.loc 1 181 0
 257 0014 012B     		cmp	r3, #1
 258 0016 01D1     		bne	.L36
 182:source\bsw/led.c ****     {
 183:source\bsw/led.c ****         return LED_OFF;
 259              		.loc 1 183 0
 260 0018 0023     		movs	r3, #0
 261              	.LVL30:
 262 001a 00E0     		b	.L30
 263              	.LVL31:
 264              	.L36:
 184:source\bsw/led.c ****     }
 185:source\bsw/led.c ****     else
 186:source\bsw/led.c ****     {
 187:source\bsw/led.c ****         return LED_ON;
 265              		.loc 1 187 0
 266 001c 0123     		movs	r3, #1
 267              	.LVL32:
 268              	.L30:
 269              	.LBE15:
 270              	.LBE14:
 147:source\bsw/led.c ****             LED_red_Write(LED__state[ledId]);
 271              		.loc 1 147 0
 272 001e 184A     		ldr	r2, .L40
 273 0020 1354     		strb	r3, [r2, r0]
 148:source\bsw/led.c ****             break;
 274              		.loc 1 148 0
 275 0022 1846     		mov	r0, r3
 276              	.LVL33:
 277 0024 FFF7FEFF 		bl	LED_red_Write
 278              	.LVL34:
 170:source\bsw/led.c **** }
 279              		.loc 1 170 0
 280 0028 0020     		movs	r0, #0
 149:source\bsw/led.c ****         
 281              		.loc 1 149 0
 282 002a 10BD     		pop	{r4, pc}
 283              	.LVL35:
 284              	.L27:
 152:source\bsw/led.c ****             LED_orange_Write(LED__state[ledId]);
 285              		.loc 1 152 0
 286 002c 144B     		ldr	r3, .L40
 287 002e 1B5C     		ldrb	r3, [r3, r0]	@ zero_extendqisi2
 288              	.LVL36:
 289              	.LBB16:
 290              	.LBB17:
 181:source\bsw/led.c ****     {
 291              		.loc 1 181 0
 292 0030 012B     		cmp	r3, #1
 293 0032 01D1     		bne	.L37
 183:source\bsw/led.c ****     }
ARM GAS  C:\Users\zakis\AppData\Local\Temp\ccxCXNFd.s 			page 10


 294              		.loc 1 183 0
 295 0034 0023     		movs	r3, #0
 296              	.LVL37:
 297 0036 00E0     		b	.L31
 298              	.LVL38:
 299              	.L37:
 300              		.loc 1 187 0
 301 0038 0123     		movs	r3, #1
 302              	.LVL39:
 303              	.L31:
 304              	.LBE17:
 305              	.LBE16:
 152:source\bsw/led.c ****             LED_orange_Write(LED__state[ledId]);
 306              		.loc 1 152 0
 307 003a 114A     		ldr	r2, .L40
 308 003c 1354     		strb	r3, [r2, r0]
 153:source\bsw/led.c ****             break;
 309              		.loc 1 153 0
 310 003e 1846     		mov	r0, r3
 311              	.LVL40:
 312 0040 FFF7FEFF 		bl	LED_orange_Write
 313              	.LVL41:
 170:source\bsw/led.c **** }
 314              		.loc 1 170 0
 315 0044 0020     		movs	r0, #0
 154:source\bsw/led.c ****             
 316              		.loc 1 154 0
 317 0046 10BD     		pop	{r4, pc}
 318              	.LVL42:
 319              	.L28:
 157:source\bsw/led.c ****             LED_green_Write(LED__state[ledId]);
 320              		.loc 1 157 0
 321 0048 0D4B     		ldr	r3, .L40
 322 004a 1B5C     		ldrb	r3, [r3, r0]	@ zero_extendqisi2
 323              	.LVL43:
 324              	.LBB18:
 325              	.LBB19:
 181:source\bsw/led.c ****     {
 326              		.loc 1 181 0
 327 004c 012B     		cmp	r3, #1
 328 004e 01D1     		bne	.L38
 183:source\bsw/led.c ****     }
 329              		.loc 1 183 0
 330 0050 0023     		movs	r3, #0
 331              	.LVL44:
 332 0052 00E0     		b	.L32
 333              	.LVL45:
 334              	.L38:
 335              		.loc 1 187 0
 336 0054 0123     		movs	r3, #1
 337              	.LVL46:
 338              	.L32:
 339              	.LBE19:
 340              	.LBE18:
 157:source\bsw/led.c ****             LED_green_Write(LED__state[ledId]);
 341              		.loc 1 157 0
 342 0056 0A4A     		ldr	r2, .L40
ARM GAS  C:\Users\zakis\AppData\Local\Temp\ccxCXNFd.s 			page 11


 343 0058 1354     		strb	r3, [r2, r0]
 158:source\bsw/led.c ****             break;
 344              		.loc 1 158 0
 345 005a 1846     		mov	r0, r3
 346              	.LVL47:
 347 005c FFF7FEFF 		bl	LED_green_Write
 348              	.LVL48:
 170:source\bsw/led.c **** }
 349              		.loc 1 170 0
 350 0060 0020     		movs	r0, #0
 159:source\bsw/led.c ****            
 351              		.loc 1 159 0
 352 0062 10BD     		pop	{r4, pc}
 353              	.LVL49:
 354              	.L33:
 355              	.LBB20:
 164:source\bsw/led.c ****             }
 356              		.loc 1 164 0 discriminator 3
 357 0064 2046     		mov	r0, r4
 358 0066 FFF7FEFF 		bl	LED_Toggle
 359              	.LVL50:
 162:source\bsw/led.c ****             {
 360              		.loc 1 162 0 discriminator 3
 361 006a 0134     		adds	r4, r4, #1
 362              	.LVL51:
 363 006c E4B2     		uxtb	r4, r4
 364              	.LVL52:
 365 006e 00E0     		b	.L29
 366              	.LVL53:
 367              	.L35:
 368              	.LBE20:
 144:source\bsw/led.c ****     {
 369              		.loc 1 144 0
 370 0070 0024     		movs	r4, #0
 371              	.LVL54:
 372              	.L29:
 373              	.LBB21:
 162:source\bsw/led.c ****             {
 374              		.loc 1 162 0 discriminator 1
 375 0072 042C     		cmp	r4, #4
 376 0074 F6D9     		bls	.L33
 377              	.LBE21:
 170:source\bsw/led.c **** }
 378              		.loc 1 170 0
 379 0076 0020     		movs	r0, #0
 380              	.LBB22:
 381 0078 10BD     		pop	{r4, pc}
 382              	.LVL55:
 383              	.L34:
 384              	.LBE22:
 167:source\bsw/led.c ****     }
 385              		.loc 1 167 0
 386 007a 6FF01300 		mvn	r0, #19
 387              	.LVL56:
 171:source\bsw/led.c **** 
 388              		.loc 1 171 0
 389 007e 10BD     		pop	{r4, pc}
ARM GAS  C:\Users\zakis\AppData\Local\Temp\ccxCXNFd.s 			page 12


 390              	.L41:
 391              		.align	2
 392              	.L40:
 393 0080 00000000 		.word	.LANCHOR0
 394              		.cfi_endproc
 395              	.LFE112:
 396              		.size	LED_Toggle, .-LED_Toggle
 397              		.bss
 398              		.align	2
 399              		.set	.LANCHOR0,. + 0
 400              		.type	LED__state, %object
 401              		.size	LED__state, 5
 402              	LED__state:
 403 0000 00000000 		.space	5
 403      00
 404              		.text
 405              	.Letext0:
 406              		.file 2 "c:\\program files (x86)\\cypress\\psoc creator\\4.4\\psoc creator\\import\\gnu\\arm\\5.4.
 407              		.file 3 "c:\\program files (x86)\\cypress\\psoc creator\\4.4\\psoc creator\\import\\gnu\\arm\\5.4.
 408              		.file 4 "Generated_Source\\PSoC5/ErikaOS_common_ee_types.inc"
 409              		.file 5 "Generated_Source\\PSoC5/ErikaOS_cortex_mx_ee_cpu.inc"
 410              		.file 6 "source\\bsw\\global.h"
 411              		.file 7 "source\\bsw\\led.h"
 412              		.file 8 "Generated_Source\\PSoC5/ErikaOS_ee_oo_intfunc.inc"
 413              		.file 9 "Generated_Source\\PSoC5/ErikaOS_cortex_mx_ee_context.inc"
 414              		.file 10 "Generated_Source\\PSoC5/ErikaOS_common_ee_primitives.inc"
 415              		.file 11 "Generated_Source\\PSoC5/core_cm3.h"
 416              		.file 12 "Generated_Source\\PSoC5/LED_red.h"
 417              		.file 13 "Generated_Source\\PSoC5/LED_orange.h"
 418              		.file 14 "Generated_Source\\PSoC5/LED_green.h"